---
triple:          'arm64-apple-darwin'
binary-path:     '/Users/runner/work/mlc-python/mlc-python/build-wheels/cp310-cp310-macosx_11_0_arm64-RelWithDebInfo/lib/libmlc_registry.dylib'
relocations:
  - { offsetInCU: 0x4C, offset: 0x4C, size: 0x8, addend: 0x0, symName: __ZN3mlc4base10TypeTraitsI8DLDevicevE15str2device_typeE, symObjAddr: 0x2EAC0, symBinAddr: 0x682F0, symSize: 0x0 }
  - { offsetInCU: 0x746, offset: 0x746, size: 0x8, addend: 0x0, symName: __ZN3mlc4base14MLCCreateErrorEPKcRKNSt3__112basic_stringIcNS3_11char_traitsIcEENS3_9allocatorIcEEEE12MLCByteArray, symObjAddr: 0xF154, symBinAddr: 0x127E8, symSize: 0x10C }
  - { offsetInCU: 0x13DB, offset: 0x13DB, size: 0x8, addend: 0x0, symName: __ZN3mlc4base6DecRefEP6MLCAny, symObjAddr: 0x7CA0, symBinAddr: 0xB334, symSize: 0x28 }
  - { offsetInCU: 0x155D, offset: 0x155D, size: 0x8, addend: 0x0, symName: __ZN3mlc4base13MLCThrowErrorEPKc12MLCByteArrayS3_, symObjAddr: 0xB5E0, symBinAddr: 0xEC74, symSize: 0x128 }
  - { offsetInCU: 0x198C, offset: 0x198C, size: 0x8, addend: 0x0, symName: __ZN3mlc4base15String2DLDeviceERKNSt3__112basic_stringIcNS1_11char_traitsIcEENS1_9allocatorIcEEEE, symObjAddr: 0xF260, symBinAddr: 0x128F4, symSize: 0x244 }
  - { offsetInCU: 0x21A9, offset: 0x21A9, size: 0x8, addend: 0x0, symName: __ZN3mlc4base17String2DLDataTypeERKNSt3__112basic_stringIcNS1_11char_traitsIcEENS1_9allocatorIcEEEE, symObjAddr: 0xF768, symBinAddr: 0x12DFC, symSize: 0x724 }
  - { offsetInCU: 0x3020, offset: 0x3020, size: 0x8, addend: 0x0, symName: __ZN3mlc4base8StrToIntERKNSt3__112basic_stringIcNS1_11char_traitsIcEENS1_9allocatorIcEEEEm, symObjAddr: 0xF4A4, symBinAddr: 0x12B38, symSize: 0xCC }
  - { offsetInCU: 0x654B, offset: 0x654B, size: 0x8, addend: 0x0, symName: __ZN3mlc4core16FuncCallUnpackedIPFNSt3__112basic_stringIcNS2_11char_traitsIcEENS2_9allocatorIcEEEENS_7AnyViewEEEEvPKNS_7FuncObjEiPKS9_PNS_3AnyE, symObjAddr: 0xC540, symBinAddr: 0xFBD4, symSize: 0x220 }
  - { offsetInCU: 0x6E6A, offset: 0x6E6A, size: 0x8, addend: 0x0, symName: __ZN3mlc4core12ObjPtrGetterINS_6ObjectEEEiP12MLCTypeFieldPvP6MLCAny, symObjAddr: 0xD0, symBinAddr: 0x3764, symSize: 0x24 }
  - { offsetInCU: 0x6ECA, offset: 0x6ECA, size: 0x8, addend: 0x0, symName: __ZN3mlc4core12ObjPtrGetterINS_6ObjectEEEiP12MLCTypeFieldPvP6MLCAny, symObjAddr: 0xD0, symBinAddr: 0x3764, symSize: 0x24 }
  - { offsetInCU: 0x6EEC, offset: 0x6EEC, size: 0x8, addend: 0x0, symName: __ZN3mlc4core12ObjPtrSetterINS_6ObjectEEEiP12MLCTypeFieldPvP6MLCAny, symObjAddr: 0xF4, symBinAddr: 0x3788, symSize: 0x298 }
  - { offsetInCU: 0x77BE, offset: 0x77BE, size: 0x8, addend: 0x0, symName: __ZN3mlc4core16FuncCallUnpackedIPFNS_3RefINS_6ObjectEEEvEEEvPKNS_7FuncObjEiPKNS_7AnyViewEPNS_3AnyE, symObjAddr: 0x16F00, symBinAddr: 0x1A594, symSize: 0x264 }
  - { offsetInCU: 0x8006, offset: 0x8006, size: 0x8, addend: 0x0, symName: __ZN3mlc4core12ObjPtrGetterINS_8ErrorObjEEEiP12MLCTypeFieldPvP6MLCAny, symObjAddr: 0x530, symBinAddr: 0x3BC4, symSize: 0x24 }
  - { offsetInCU: 0x8066, offset: 0x8066, size: 0x8, addend: 0x0, symName: __ZN3mlc4core12ObjPtrGetterINS_8ErrorObjEEEiP12MLCTypeFieldPvP6MLCAny, symObjAddr: 0x530, symBinAddr: 0x3BC4, symSize: 0x24 }
  - { offsetInCU: 0x8088, offset: 0x8088, size: 0x8, addend: 0x0, symName: __ZN3mlc4core12ObjPtrSetterINS_8ErrorObjEEEiP12MLCTypeFieldPvP6MLCAny, symObjAddr: 0x554, symBinAddr: 0x3BE8, symSize: 0x340 }
  - { offsetInCU: 0x8A7E, offset: 0x8A7E, size: 0x8, addend: 0x0, symName: __ZN3mlc4core16FuncCallUnpackedIZNS0_17FuncAllocatorImplIMNS_8ErrorObjEKFNSt3__112basic_stringIcNS4_11char_traitsIcEENS4_9allocatorIcEEEEvEvE3RunESC_EUlPKS3_E_EEvPKNS_7FuncObjEiPKNS_7AnyViewEPNS_3AnyE, symObjAddr: 0x17C88, symBinAddr: 0x1B31C, symSize: 0x770 }
  - { offsetInCU: 0xA4E8, offset: 0xA4E8, size: 0x8, addend: 0x0, symName: __ZN3mlc4core12ObjPtrGetterINS_6StrObjEEEiP12MLCTypeFieldPvP6MLCAny, symObjAddr: 0xC08, symBinAddr: 0x429C, symSize: 0x24 }
  - { offsetInCU: 0xA548, offset: 0xA548, size: 0x8, addend: 0x0, symName: __ZN3mlc4core12ObjPtrGetterINS_6StrObjEEEiP12MLCTypeFieldPvP6MLCAny, symObjAddr: 0xC08, symBinAddr: 0x429C, symSize: 0x24 }
  - { offsetInCU: 0xA56A, offset: 0xA56A, size: 0x8, addend: 0x0, symName: __ZN3mlc4core12ObjPtrSetterINS_6StrObjEEEiP12MLCTypeFieldPvP6MLCAny, symObjAddr: 0xC2C, symBinAddr: 0x42C0, symSize: 0x3B0 }
  - { offsetInCU: 0xB054, offset: 0xB054, size: 0x8, addend: 0x0, symName: __ZN3mlc4core16FuncCallUnpackedIZNS0_17FuncAllocatorImplIMNS_6StrObjEKFNSt3__112basic_stringIcNS4_11char_traitsIcEENS4_9allocatorIcEEEEvEvE3RunESC_EUlPKS3_E_EEvPKNS_7FuncObjEiPKNS_7AnyViewEPNS_3AnyE, symObjAddr: 0x18DB4, symBinAddr: 0x1C448, symSize: 0x770 }
  - { offsetInCU: 0xCABE, offset: 0xCABE, size: 0x8, addend: 0x0, symName: __ZN3mlc4core12ObjPtrGetterINS_8UDictObjEEEiP12MLCTypeFieldPvP6MLCAny, symObjAddr: 0x15F4, symBinAddr: 0x4C88, symSize: 0x24 }
  - { offsetInCU: 0xCB1E, offset: 0xCB1E, size: 0x8, addend: 0x0, symName: __ZN3mlc4core12ObjPtrGetterINS_8UDictObjEEEiP12MLCTypeFieldPvP6MLCAny, symObjAddr: 0x15F4, symBinAddr: 0x4C88, symSize: 0x24 }
  - { offsetInCU: 0xCB40, offset: 0xCB40, size: 0x8, addend: 0x0, symName: __ZN3mlc4core12ObjPtrSetterINS_8UDictObjEEEiP12MLCTypeFieldPvP6MLCAny, symObjAddr: 0x1618, symBinAddr: 0x4CAC, symSize: 0x340 }
  - { offsetInCU: 0xD572, offset: 0xD572, size: 0x8, addend: 0x0, symName: __ZN3mlc4core16FuncCallUnpackedIZNS0_17FuncAllocatorImplIMNS_8UDictObjEKFNSt3__112basic_stringIcNS4_11char_traitsIcEENS4_9allocatorIcEEEEvEvE3RunESC_EUlPKS3_E_EEvPKNS_7FuncObjEiPKNS_7AnyViewEPNS_3AnyE, symObjAddr: 0x1ABA8, symBinAddr: 0x1E23C, symSize: 0x770 }
  - { offsetInCU: 0xF018, offset: 0xF018, size: 0x8, addend: 0x0, symName: __ZN3mlc4core16FuncCallUnpackedIPFNS_3AnyEPNS_8UDictObjES2_EEEvPKNS_7FuncObjEiPKNS_7AnyViewEPS2_, symObjAddr: 0x1BB64, symBinAddr: 0x1F1F8, symSize: 0x82C }
  - { offsetInCU: 0x10A81, offset: 0x10A81, size: 0x8, addend: 0x0, symName: __ZN3mlc4core16FuncCallUnpackedIPFNS_3AnyEPNS_8UDictObjExEEEvPKNS_7FuncObjEiPKNS_7AnyViewEPS2_, symObjAddr: 0x1CB0C, symBinAddr: 0x201A0, symSize: 0xB58 }
  - { offsetInCU: 0x13597, offset: 0x13597, size: 0x8, addend: 0x0, symName: __ZN3mlc4core16FuncCallUnpackedIPFxPNS_8UDictObjExEEEvPKNS_7FuncObjEiPKNS_7AnyViewEPNS_3AnyE, symObjAddr: 0x1DB48, symBinAddr: 0x211DC, symSize: 0xB1C }
  - { offsetInCU: 0x15F81, offset: 0x15F81, size: 0x8, addend: 0x0, symName: __ZN3mlc4core12ObjPtrGetterINS_7FuncObjEEEiP12MLCTypeFieldPvP6MLCAny, symObjAddr: 0x2BE0, symBinAddr: 0x6274, symSize: 0x24 }
  - { offsetInCU: 0x15FE1, offset: 0x15FE1, size: 0x8, addend: 0x0, symName: __ZN3mlc4core12ObjPtrGetterINS_7FuncObjEEEiP12MLCTypeFieldPvP6MLCAny, symObjAddr: 0x2BE0, symBinAddr: 0x6274, symSize: 0x24 }
  - { offsetInCU: 0x16003, offset: 0x16003, size: 0x8, addend: 0x0, symName: __ZN3mlc4core12ObjPtrSetterINS_7FuncObjEEEiP12MLCTypeFieldPvP6MLCAny, symObjAddr: 0x2C04, symBinAddr: 0x6298, symSize: 0x340 }
  - { offsetInCU: 0x16989, offset: 0x16989, size: 0x8, addend: 0x0, symName: __ZN3mlc4core12ObjPtrGetterINS_8UListObjEEEiP12MLCTypeFieldPvP6MLCAny, symObjAddr: 0x3304, symBinAddr: 0x6998, symSize: 0x24 }
  - { offsetInCU: 0x169E9, offset: 0x169E9, size: 0x8, addend: 0x0, symName: __ZN3mlc4core12ObjPtrGetterINS_8UListObjEEEiP12MLCTypeFieldPvP6MLCAny, symObjAddr: 0x3304, symBinAddr: 0x6998, symSize: 0x24 }
  - { offsetInCU: 0x16A0B, offset: 0x16A0B, size: 0x8, addend: 0x0, symName: __ZN3mlc4core12ObjPtrSetterINS_8UListObjEEEiP12MLCTypeFieldPvP6MLCAny, symObjAddr: 0x3328, symBinAddr: 0x69BC, symSize: 0x340 }
  - { offsetInCU: 0x17401, offset: 0x17401, size: 0x8, addend: 0x0, symName: __ZN3mlc4core16FuncCallUnpackedIZNS0_17FuncAllocatorImplIMNS_8UListObjEKFNSt3__112basic_stringIcNS4_11char_traitsIcEENS4_9allocatorIcEEEEvEvE3RunESC_EUlPKS3_E_EEvPKNS_7FuncObjEiPKNS_7AnyViewEPNS_3AnyE, symObjAddr: 0x1F630, symBinAddr: 0x22CC4, symSize: 0x770 }
  - { offsetInCU: 0x18EA7, offset: 0x18EA7, size: 0x8, addend: 0x0, symName: __ZN3mlc4core16FuncCallUnpackedIPFNS_3AnyEPNS_8UListObjExEEEvPKNS_7FuncObjEiPKNS_7AnyViewEPS2_, symObjAddr: 0x20370, symBinAddr: 0x23A04, symSize: 0xB58 }
  - { offsetInCU: 0x1B979, offset: 0x1B979, size: 0x8, addend: 0x0, symName: __ZN3mlc4core16FuncCallUnpackedIPFNSt3__112basic_stringIcNS2_11char_traitsIcEENS2_9allocatorIcEEEEPvEEEvPKNS_7FuncObjEiPKNS_7AnyViewEPNS_3AnyE, symObjAddr: 0x21530, symBinAddr: 0x24BC4, symSize: 0x68C }
  - { offsetInCU: 0x1D5DB, offset: 0x1D5DB, size: 0x8, addend: 0x0, symName: __ZN3mlc4core16FuncCallUnpackedIPFNSt3__112basic_stringIcNS2_11char_traitsIcEENS2_9allocatorIcEEEExEEEvPKNS_7FuncObjEiPKNS_7AnyViewEPNS_3AnyE, symObjAddr: 0x21FAC, symBinAddr: 0x25640, symSize: 0x67C }
  - { offsetInCU: 0x1F23D, offset: 0x1F23D, size: 0x8, addend: 0x0, symName: __ZN3mlc4core16FuncCallUnpackedIPFNSt3__112basic_stringIcNS2_11char_traitsIcEENS2_9allocatorIcEEEEdEEEvPKNS_7FuncObjEiPKNS_7AnyViewEPNS_3AnyE, symObjAddr: 0x22A18, symBinAddr: 0x260AC, symSize: 0x69C }
  - { offsetInCU: 0x20E9F, offset: 0x20E9F, size: 0x8, addend: 0x0, symName: '__ZN3mlc4core16FuncCallUnpackedINS_8registry8_POD_REG3$_0EEEvPKNS_7FuncObjEiPKNS_7AnyViewEPNS_3AnyE', symObjAddr: 0x23318, symBinAddr: 0x269AC, symSize: 0x43C }
  - { offsetInCU: 0x22159, offset: 0x22159, size: 0x8, addend: 0x0, symName: __ZN3mlc4core16FuncCallUnpackedIPFNSt3__112basic_stringIcNS2_11char_traitsIcEENS2_9allocatorIcEEEE8DLDeviceEEEvPKNS_7FuncObjEiPKNS_7AnyViewEPNS_3AnyE, symObjAddr: 0x23B54, symBinAddr: 0x271E8, symSize: 0x7DC }
  - { offsetInCU: 0x24565, offset: 0x24565, size: 0x8, addend: 0x0, symName: '__ZN3mlc4core16FuncCallUnpackedINS_8registry8_POD_REG3$_1EEEvPKNS_7FuncObjEiPKNS_7AnyViewEPNS_3AnyE', symObjAddr: 0x24598, symBinAddr: 0x27C2C, symSize: 0x438 }
  - { offsetInCU: 0x25867, offset: 0x25867, size: 0x8, addend: 0x0, symName: __ZN3mlc4core16FuncCallUnpackedIPFNSt3__112basic_stringIcNS2_11char_traitsIcEENS2_9allocatorIcEEEE10DLDataTypeEEEvPKNS_7FuncObjEiPKNS_7AnyViewEPNS_3AnyE, symObjAddr: 0x24DD4, symBinAddr: 0x28468, symSize: 0x7D4 }
  - { offsetInCU: 0x27C49, offset: 0x27C49, size: 0x8, addend: 0x0, symName: __ZN3mlc4core16FuncCallUnpackedIPFNSt3__112basic_stringIcNS2_11char_traitsIcEENS2_9allocatorIcEEEEPKcEEEvPKNS_7FuncObjEiPKNS_7AnyViewEPNS_3AnyE, symObjAddr: 0x259A0, symBinAddr: 0x29034, symSize: 0x6A8 }
  - { offsetInCU: 0x298D5, offset: 0x298D5, size: 0x8, addend: 0x0, symName: '__ZN3mlc4core16FuncCallUnpackedIN12_GLOBAL__N_13$_2EEEvPKNS_7FuncObjEiPKNS_7AnyViewEPNS_3AnyE', symObjAddr: 0x262B0, symBinAddr: 0x29944, symSize: 0x6E4 }
  - { offsetInCU: 0x2B94D, offset: 0x2B94D, size: 0x8, addend: 0x0, symName: __ZN3mlc4core16PrintAnyToStreamERNSt3__113basic_ostreamIcNS1_11char_traitsIcEEEEPK6MLCAny, symObjAddr: 0xAD88, symBinAddr: 0xE41C, symSize: 0x694 }
  - { offsetInCU: 0x2CF6A, offset: 0x2CF6A, size: 0x8, addend: 0x0, symName: __ZN3mlc4core14FuncCallPackedIZNS_7FuncObj11FromForeignEPvPFvS3_EPFiPKviPK6MLCAnyPS8_EEUliSA_SB_E_EEvPKS2_iPKNS_7AnyViewEPNS_3AnyE, symObjAddr: 0x15A9C, symBinAddr: 0x19130, symSize: 0x8 }
  - { offsetInCU: 0x2CFE6, offset: 0x2CFE6, size: 0x8, addend: 0x0, symName: __ZN3mlc4core14FuncCallPackedIZNS_7FuncObj11FromForeignEPvPFvS3_EPFiPKviPK6MLCAnyPS8_EEUliSA_SB_E0_EEvPKS2_iPKNS_7AnyViewEPNS_3AnyE, symObjAddr: 0x15D70, symBinAddr: 0x19404, symSize: 0x8 }
  - { offsetInCU: 0x2D565, offset: 0x2D565, size: 0x8, addend: 0x0, symName: __ZN3mlc4core14FuncCallPackedIPFviPKNS_7AnyViewEPNS_3AnyEEEEvPKNS_7FuncObjEiS4_S6_, symObjAddr: 0x1A9F0, symBinAddr: 0x1E084, symSize: 0x14 }
  - { offsetInCU: 0x30694, offset: 0x30694, size: 0x8, addend: 0x0, symName: __ZN3mlc8registry19ObjPtrSetterDefaultEP12MLCTypeFieldPvP6MLCAny, symObjAddr: 0x100DC, symBinAddr: 0x13770, symSize: 0x620 }
  - { offsetInCU: 0x314A1, offset: 0x314A1, size: 0x8, addend: 0x0, symName: __ZN3mlc8registry19ObjPtrGetterDefaultEP12MLCTypeFieldPvP6MLCAny, symObjAddr: 0x106FC, symBinAddr: 0x13D90, symSize: 0x20 }
  - { offsetInCU: 0x32C10, offset: 0x32C10, size: 0x8, addend: 0x0, symName: __ZN3mlc6InitOfINS_6ObjectEJEEENS_3RefIS1_EEDpOT0_, symObjAddr: 0x4E4, symBinAddr: 0x3B78, symSize: 0x4C }
  - { offsetInCU: 0x32D0C, offset: 0x32D0C, size: 0x8, addend: 0x0, symName: __ZN3mlclsERNSt3__113basic_ostreamIcNS0_11char_traitsIcEEEERKNS_3AnyE, symObjAddr: 0xCB70, symBinAddr: 0x10204, symSize: 0x24 }
  - { offsetInCU: 0x58465, offset: 0x58465, size: 0x8, addend: 0x0, symName: __ZNSt3__119piecewise_constructE, symObjAddr: 0x2E687, symBinAddr: 0x5A6AF, symSize: 0x0 }
  - { offsetInCU: 0x5F63A, offset: 0x5F63A, size: 0x8, addend: 0x0, symName: __ZNSt3__124__put_character_sequenceB8ue170006IcNS_11char_traitsIcEEEERNS_13basic_ostreamIT_T0_EES7_PKS4_m, symObjAddr: 0xA784, symBinAddr: 0xDE18, symSize: 0x164 }
  - { offsetInCU: 0x60541, offset: 0x60541, size: 0x8, addend: 0x0, symName: __ZNSt3__111__introsortINS_17_ClassicAlgPolicyERZN3mlc8registry15TypeInfoWrapper9SetFieldsExP12MLCTypeFieldEUlRKS5_S8_E_S6_Lb0EEEvT1_SB_T0_NS_15iterator_traitsISB_E15difference_typeEb, symObjAddr: 0x11BF8, symBinAddr: 0x1528C, symSize: 0xD70 }
  - { offsetInCU: 0x62043, offset: 0x62043, size: 0x8, addend: 0x0, symName: __ZNSt3__127__insertion_sort_incompleteB8ue170006INS_17_ClassicAlgPolicyERZN3mlc8registry15TypeInfoWrapper9SetFieldsExP12MLCTypeFieldEUlRKS5_S8_E_S6_EEbT1_SB_T0_, symObjAddr: 0x12968, symBinAddr: 0x15FFC, symSize: 0x440 }
  - { offsetInCU: 0x62ECE, offset: 0x62ECE, size: 0x8, addend: 0x0, symName: __ZNSt3__111__introsortINS_17_ClassicAlgPolicyERZN3mlc8registry15TypeInfoWrapper10SetMethodsExP13MLCTypeMethodEUlRKS5_S8_E_S6_Lb0EEEvT1_SB_T0_NS_15iterator_traitsISB_E15difference_typeEb, symObjAddr: 0x140A0, symBinAddr: 0x17734, symSize: 0x498 }
  - { offsetInCU: 0x635FE, offset: 0x635FE, size: 0x8, addend: 0x0, symName: __ZNSt3__111__sift_downB8ue170006INS_17_ClassicAlgPolicyERZN3mlc8registry15TypeInfoWrapper10SetMethodsExP13MLCTypeMethodEUlRKS5_S8_E_S6_EEvT1_OT0_NS_15iterator_traitsISB_E15difference_typeESB_, symObjAddr: 0x14C80, symBinAddr: 0x18314, symSize: 0x190 }
  - { offsetInCU: 0x6374A, offset: 0x6374A, size: 0x8, addend: 0x0, symName: __ZNSt3__131__partition_with_equals_on_leftB8ue170006INS_17_ClassicAlgPolicyEP13MLCTypeMethodRZN3mlc8registry15TypeInfoWrapper10SetMethodsExS3_EUlRKS2_S8_E_EET0_SB_SB_T1_, symObjAddr: 0x1467C, symBinAddr: 0x17D10, symSize: 0x130 }
  - { offsetInCU: 0x63928, offset: 0x63928, size: 0x8, addend: 0x0, symName: __ZNSt3__132__partition_with_equals_on_rightB8ue170006INS_17_ClassicAlgPolicyEP13MLCTypeMethodRZN3mlc8registry15TypeInfoWrapper10SetMethodsExS3_EUlRKS2_S8_E_EENS_4pairIT0_bEESC_SC_T1_, symObjAddr: 0x147AC, symBinAddr: 0x17E40, symSize: 0x128 }
  - { offsetInCU: 0x63B05, offset: 0x63B05, size: 0x8, addend: 0x0, symName: __ZNSt3__127__insertion_sort_incompleteB8ue170006INS_17_ClassicAlgPolicyERZN3mlc8registry15TypeInfoWrapper10SetMethodsExP13MLCTypeMethodEUlRKS5_S8_E_S6_EEbT1_SB_T0_, symObjAddr: 0x148D4, symBinAddr: 0x17F68, symSize: 0x1D0 }
  - { offsetInCU: 0x67A0E, offset: 0x67A0E, size: 0x8, addend: 0x0, symName: __ZNSt3__1lsB8ue170006INS_11char_traitsIcEEEERNS_13basic_ostreamIcT_EES6_PKc, symObjAddr: 0x8DAC, symBinAddr: 0xC440, symSize: 0x34 }
  - { offsetInCU: 0x67B23, offset: 0x67B23, size: 0x8, addend: 0x0, symName: __ZNSt3__14endlB8ue170006IcNS_11char_traitsIcEEEERNS_13basic_ostreamIT_T0_EES7_, symObjAddr: 0x8DE0, symBinAddr: 0xC474, symSize: 0x90 }
  - { offsetInCU: 0x6820D, offset: 0x6820D, size: 0x8, addend: 0x0, symName: __ZNSt3__120__throw_length_errorB8ue170006EPKc, symObjAddr: 0x9E74, symBinAddr: 0xD508, symSize: 0x50 }
  - { offsetInCU: 0x68307, offset: 0x68307, size: 0x8, addend: 0x0, symName: __ZNSt3__116__pad_and_outputB8ue170006IcNS_11char_traitsIcEEEENS_19ostreambuf_iteratorIT_T0_EES6_PKS4_S8_S8_RNS_8ios_baseES4_, symObjAddr: 0xA8E8, symBinAddr: 0xDF7C, symSize: 0x194 }
  - { offsetInCU: 0x68ADC, offset: 0x68ADC, size: 0x8, addend: 0x0, symName: __ZNSt3__1lsB8ue170006IcNS_11char_traitsIcEENS_9allocatorIcEEEERNS_13basic_ostreamIT_T0_EES9_RKNS_12basic_stringIS6_S7_T1_EE, symObjAddr: 0xBDD4, symBinAddr: 0xF468, symSize: 0x1C }
  - { offsetInCU: 0x68B03, offset: 0x68B03, size: 0x8, addend: 0x0, symName: __ZNSt3__1lsB8ue170006IcNS_11char_traitsIcEENS_9allocatorIcEEEERNS_13basic_ostreamIT_T0_EES9_RKNS_12basic_stringIS6_S7_T1_EE, symObjAddr: 0xBDD4, symBinAddr: 0xF468, symSize: 0x1C }
  - { offsetInCU: 0x68B21, offset: 0x68B21, size: 0x8, addend: 0x0, symName: __ZNSt3__1lsB8ue170006IcNS_11char_traitsIcEENS_9allocatorIcEEEERNS_13basic_ostreamIT_T0_EES9_RKNS_12basic_stringIS6_S7_T1_EE, symObjAddr: 0xBDD4, symBinAddr: 0xF468, symSize: 0x1C }
  - { offsetInCU: 0x68B3F, offset: 0x68B3F, size: 0x8, addend: 0x0, symName: __ZNSt3__1lsB8ue170006IcNS_11char_traitsIcEENS_9allocatorIcEEEERNS_13basic_ostreamIT_T0_EES9_RKNS_12basic_stringIS6_S7_T1_EE, symObjAddr: 0xBDD4, symBinAddr: 0xF468, symSize: 0x1C }
  - { offsetInCU: 0x68ED9, offset: 0x68ED9, size: 0x8, addend: 0x0, symName: __ZNSt3__120__throw_out_of_rangeB8ue170006EPKc, symObjAddr: 0xF570, symBinAddr: 0x12C04, symSize: 0x50 }
  - { offsetInCU: 0x69AC9, offset: 0x69AC9, size: 0x8, addend: 0x0, symName: __ZNSt3__17__sort4B8ue170006INS_17_ClassicAlgPolicyERZN3mlc8registry15TypeInfoWrapper9SetFieldsExP12MLCTypeFieldEUlRKS5_S8_E_S6_EEvT1_SB_SB_SB_T0_, symObjAddr: 0x12DA8, symBinAddr: 0x1643C, symSize: 0x188 }
  - { offsetInCU: 0x69F62, offset: 0x69F62, size: 0x8, addend: 0x0, symName: __ZNSt3__119__partial_sort_implB8ue170006INS_17_ClassicAlgPolicyERZN3mlc8registry15TypeInfoWrapper9SetFieldsExP12MLCTypeFieldEUlRKS5_S8_E_S6_S6_EET1_SB_SB_T2_OT0_, symObjAddr: 0x12F30, symBinAddr: 0x165C4, symSize: 0x404 }
  - { offsetInCU: 0x6AB2F, offset: 0x6AB2F, size: 0x8, addend: 0x0, symName: __ZNSt3__17__sort3B8ue170006INS_17_ClassicAlgPolicyERZN3mlc8registry15TypeInfoWrapper10SetMethodsExP13MLCTypeMethodEUlRKS5_S8_E_S6_EEjT1_SB_SB_T0_, symObjAddr: 0x14538, symBinAddr: 0x17BCC, symSize: 0x144 }
  - { offsetInCU: 0x6AE0E, offset: 0x6AE0E, size: 0x8, addend: 0x0, symName: __ZNSt3__17__sort4B8ue170006INS_17_ClassicAlgPolicyERZN3mlc8registry15TypeInfoWrapper10SetMethodsExP13MLCTypeMethodEUlRKS5_S8_E_S6_EEvT1_SB_SB_SB_T0_, symObjAddr: 0x14AA4, symBinAddr: 0x18138, symSize: 0xD0 }
  - { offsetInCU: 0x6B04B, offset: 0x6B04B, size: 0x8, addend: 0x0, symName: __ZNSt3__17__sort5B8ue170006INS_17_ClassicAlgPolicyERZN3mlc8registry15TypeInfoWrapper10SetMethodsExP13MLCTypeMethodEUlRKS5_S8_E_S6_EEvT1_SB_SB_SB_SB_T0_, symObjAddr: 0x14B74, symBinAddr: 0x18208, symSize: 0x10C }
  - { offsetInCU: 0x6B325, offset: 0x6B325, size: 0x8, addend: 0x0, symName: __ZNSt3__111__sort_heapB8ue170006INS_17_ClassicAlgPolicyERZN3mlc8registry15TypeInfoWrapper10SetMethodsExP13MLCTypeMethodEUlRKS5_S8_E_S6_EEvT1_SB_OT0_, symObjAddr: 0x14E10, symBinAddr: 0x184A4, symSize: 0x1CC }
  - { offsetInCU: 0x6BF1B, offset: 0x6BF1B, size: 0x8, addend: 0x0, symName: __ZNSt3__135__uninitialized_allocator_copy_implB8ue170006INS_9allocatorIN3mlc3AnyEEEPKNS2_7AnyViewES7_PS3_EET2_RT_T0_T1_S9_, symObjAddr: 0x1EF40, symBinAddr: 0x225D4, symSize: 0x140 }
  - { offsetInCU: 0x6C272, offset: 0x6C272, size: 0x8, addend: 0x0, symName: __ZNSt3__111make_uniqueB8ue170006IN3mlc8registry10DSOLibraryEJRNS_12basic_stringIcNS_11char_traitsIcEENS_9allocatorIcEEEEEEENS_11__unique_ifIT_E15__unique_singleEDpOT0_, symObjAddr: 0x26CA4, symBinAddr: 0x2A338, symSize: 0x104 }
  - { offsetInCU: 0x6D293, offset: 0x6D293, size: 0x8, addend: 0x0, symName: __ZSt28__throw_bad_array_new_lengthB8ue170006v, symObjAddr: 0x9EE8, symBinAddr: 0xD57C, symSize: 0x28 }
  - { offsetInCU: 0x6DC24, offset: 0x6DC24, size: 0x8, addend: 0x0, symName: __ZN3mlc4base10TypeTraitsI10DLDataTypevE6presetE, symObjAddr: 0x2EAF0, symBinAddr: 0x68320, symSize: 0x0 }
  - { offsetInCU: 0x6E18E, offset: 0x6E18E, size: 0x8, addend: 0x0, symName: __ZN3mlc6Object10_type_infoE, symObjAddr: 0x2EB20, symBinAddr: 0x68350, symSize: 0x0 }
  - { offsetInCU: 0x6E512, offset: 0x6E512, size: 0x8, addend: 0x0, symName: __ZN3mlc6Object13_type_reflectE, symObjAddr: 0x2EB30, symBinAddr: 0x68360, symSize: 0x0 }
  - { offsetInCU: 0x6E525, offset: 0x6E525, size: 0x8, addend: 0x0, symName: __ZN3mlc9ObjectRef13_type_reflectE, symObjAddr: 0x2EB40, symBinAddr: 0x68370, symSize: 0x0 }
  - { offsetInCU: 0x6E538, offset: 0x6E538, size: 0x8, addend: 0x0, symName: __ZN3mlc8ErrorObj10_type_infoE, symObjAddr: 0x2EB50, symBinAddr: 0x68380, symSize: 0x0 }
  - { offsetInCU: 0x6E98B, offset: 0x6E98B, size: 0x8, addend: 0x0, symName: __ZN3mlc8ErrorObj13_type_reflectE, symObjAddr: 0x2EB60, symBinAddr: 0x68390, symSize: 0x0 }
  - { offsetInCU: 0x6E99E, offset: 0x6E99E, size: 0x8, addend: 0x0, symName: __ZN3mlc5Error13_type_reflectE, symObjAddr: 0x2EB70, symBinAddr: 0x683A0, symSize: 0x0 }
  - { offsetInCU: 0x6E9D8, offset: 0x6E9D8, size: 0x8, addend: 0x0, symName: __ZN3mlc6StrObj10_type_infoE, symObjAddr: 0x2EB80, symBinAddr: 0x683B0, symSize: 0x0 }
  - { offsetInCU: 0x6E9EB, offset: 0x6E9EB, size: 0x8, addend: 0x0, symName: __ZN3mlc6StrObj13_type_reflectE, symObjAddr: 0x2EB90, symBinAddr: 0x683C0, symSize: 0x0 }
  - { offsetInCU: 0x6E9FE, offset: 0x6E9FE, size: 0x8, addend: 0x0, symName: __ZN3mlc3Str13_type_reflectE, symObjAddr: 0x2EBA0, symBinAddr: 0x683D0, symSize: 0x0 }
  - { offsetInCU: 0x6EA11, offset: 0x6EA11, size: 0x8, addend: 0x0, symName: __ZN3mlc8UDictObj10_type_infoE, symObjAddr: 0x2EBB0, symBinAddr: 0x683E0, symSize: 0x0 }
  - { offsetInCU: 0x6EB6D, offset: 0x6EB6D, size: 0x8, addend: 0x0, symName: __ZN3mlc8UDictObj13_type_reflectE, symObjAddr: 0x2EBC0, symBinAddr: 0x683F0, symSize: 0x0 }
  - { offsetInCU: 0x6EB80, offset: 0x6EB80, size: 0x8, addend: 0x0, symName: __ZN3mlc5UDict13_type_reflectE, symObjAddr: 0x2EBD0, symBinAddr: 0x68400, symSize: 0x0 }
  - { offsetInCU: 0x6EC00, offset: 0x6EC00, size: 0x8, addend: 0x0, symName: __ZN3mlc7FuncObj10_type_infoE, symObjAddr: 0x2EBE0, symBinAddr: 0x68410, symSize: 0x0 }
  - { offsetInCU: 0x6EC90, offset: 0x6EC90, size: 0x8, addend: 0x0, symName: __ZN3mlc7FuncObj13_type_reflectE, symObjAddr: 0x2EBF0, symBinAddr: 0x68420, symSize: 0x0 }
  - { offsetInCU: 0x6ECA3, offset: 0x6ECA3, size: 0x8, addend: 0x0, symName: __ZN3mlc4Func13_type_reflectE, symObjAddr: 0x2EC00, symBinAddr: 0x68430, symSize: 0x0 }
  - { offsetInCU: 0x6ECDD, offset: 0x6ECDD, size: 0x8, addend: 0x0, symName: __ZN3mlc8UListObj10_type_infoE, symObjAddr: 0x2EC10, symBinAddr: 0x68440, symSize: 0x0 }
  - { offsetInCU: 0x6EDBF, offset: 0x6EDBF, size: 0x8, addend: 0x0, symName: __ZN3mlc8UListObj13_type_reflectE, symObjAddr: 0x2EC20, symBinAddr: 0x68450, symSize: 0x0 }
  - { offsetInCU: 0x6EDD2, offset: 0x6EDD2, size: 0x8, addend: 0x0, symName: __ZN3mlc5UList13_type_reflectE, symObjAddr: 0x2EC30, symBinAddr: 0x68460, symSize: 0x0 }
  - { offsetInCU: 0x6EE22, offset: 0x6EE22, size: 0x8, addend: 0x0, symName: __ZN3mlc8registry8_POD_REG5_noneE, symObjAddr: 0x2EC40, symBinAddr: 0x68470, symSize: 0x0 }
  - { offsetInCU: 0x6EE35, offset: 0x6EE35, size: 0x8, addend: 0x0, symName: __ZN3mlc8registry8_POD_REG4_intE, symObjAddr: 0x2EC50, symBinAddr: 0x68480, symSize: 0x0 }
  - { offsetInCU: 0x6EE48, offset: 0x6EE48, size: 0x8, addend: 0x0, symName: __ZN3mlc8registry8_POD_REG6_floatE, symObjAddr: 0x2EC60, symBinAddr: 0x68490, symSize: 0x0 }
  - { offsetInCU: 0x6EE5B, offset: 0x6EE5B, size: 0x8, addend: 0x0, symName: __ZN3mlc8registry8_POD_REG4_ptrE, symObjAddr: 0x2EC70, symBinAddr: 0x684A0, symSize: 0x0 }
  - { offsetInCU: 0x6EE6E, offset: 0x6EE6E, size: 0x8, addend: 0x0, symName: __ZN3mlc8registry8_POD_REG7_deviceE, symObjAddr: 0x2EC80, symBinAddr: 0x684B0, symSize: 0x0 }
  - { offsetInCU: 0x6EE81, offset: 0x6EE81, size: 0x8, addend: 0x0, symName: __ZN3mlc8registry8_POD_REG6_dtypeE, symObjAddr: 0x2EC90, symBinAddr: 0x684C0, symSize: 0x0 }
  - { offsetInCU: 0x6EE94, offset: 0x6EE94, size: 0x8, addend: 0x0, symName: __ZN3mlc8registry8_POD_REG4_strE, symObjAddr: 0x2ECA0, symBinAddr: 0x684D0, symSize: 0x0 }
  - { offsetInCU: 0x717EE, offset: 0x717EE, size: 0x8, addend: 0x0, symName: __ZN3mlc8registry9TypeTable6GlobalEv, symObjAddr: 0x519C, symBinAddr: 0x8830, symSize: 0x70 }
  - { offsetInCU: 0x7180E, offset: 0x7180E, size: 0x8, addend: 0x0, symName: __ZZN3mlc8registry9TypeTable6GlobalEvE8instance, symObjAddr: 0x36ABC0, symBinAddr: 0x68658, symSize: 0x0 }
  - { offsetInCU: 0x7184D, offset: 0x7184D, size: 0x8, addend: 0x0, symName: _MLCErrorGetInfo, symObjAddr: 0x97A4, symBinAddr: 0xCE38, symSize: 0x418 }
  - { offsetInCU: 0x72180, offset: 0x72180, size: 0x8, addend: 0x0, symName: __ZN3mlc4core9DictBlock18kNextProbeLocationE, symObjAddr: 0x2E6D0, symBinAddr: 0x5A6F8, symSize: 0x0 }
  - { offsetInCU: 0x72D6E, offset: 0x72D6E, size: 0x8, addend: 0x0, symName: __ZN3mlc7FuncObj11FromForeignEPvPFvS1_EPFiPKviPK6MLCAnyPS6_E, symObjAddr: 0x92A0, symBinAddr: 0xC934, symSize: 0x144 }
  - { offsetInCU: 0x760E1, offset: 0x760E1, size: 0x8, addend: 0x0, symName: __ZNSt3__112__hash_tableINS_17__hash_value_typeINS_12basic_stringIcNS_11char_traitsIcEENS_9allocatorIcEEEE12DLDeviceTypeEENS_22__unordered_map_hasherIS7_S9_NS_4hashIS7_EENS_8equal_toIS7_EELb1EEENS_21__unordered_map_equalIS7_S9_SE_SC_Lb1EEENS5_IS9_EEE25__emplace_unique_key_argsIS7_JRKNS_4pairIKS7_S8_EEEEENSL_INS_15__hash_iteratorIPNS_11__hash_nodeIS9_PvEEEEbEERKT_DpOT0_, symObjAddr: 0x16144, symBinAddr: 0x197D8, symSize: 0x380 }
  - { offsetInCU: 0x767AE, offset: 0x767AE, size: 0x8, addend: 0x0, symName: __ZNSt3__113unordered_mapINS_12basic_stringIcNS_11char_traitsIcEENS_9allocatorIcEEEE12DLDeviceTypeNS_4hashIS6_EENS_8equal_toIS6_EENS4_INS_4pairIKS6_S7_EEEEED1B8ue170006Ev, symObjAddr: 0x0, symBinAddr: 0x3694, symSize: 0x68 }
  - { offsetInCU: 0x76DF2, offset: 0x76DF2, size: 0x8, addend: 0x0, symName: __ZNSt3__112__hash_tableINS_17__hash_value_typeINS_12basic_stringIcNS_11char_traitsIcEENS_9allocatorIcEEEE10DLDataTypeEENS_22__unordered_map_hasherIS7_S9_NS_4hashIS7_EENS_8equal_toIS7_EELb1EEENS_21__unordered_map_equalIS7_S9_SE_SC_Lb1EEENS5_IS9_EEE25__emplace_unique_key_argsIS7_JRKNS_4pairIKS7_S8_EEEEENSL_INS_15__hash_iteratorIPNS_11__hash_nodeIS9_PvEEEEbEERKT_DpOT0_, symObjAddr: 0x16758, symBinAddr: 0x19DEC, symSize: 0x380 }
  - { offsetInCU: 0x774BF, offset: 0x774BF, size: 0x8, addend: 0x0, symName: __ZNSt3__113unordered_mapINS_12basic_stringIcNS_11char_traitsIcEENS_9allocatorIcEEEE10DLDataTypeNS_4hashIS6_EENS_8equal_toIS6_EENS4_INS_4pairIKS6_S7_EEEEED1B8ue170006Ev, symObjAddr: 0x68, symBinAddr: 0x36FC, symSize: 0x68 }
  - { offsetInCU: 0x77900, offset: 0x77900, size: 0x8, addend: 0x0, symName: _MLCTypeRegister, symObjAddr: 0x54E4, symBinAddr: 0x8B78, symSize: 0x36C }
  - { offsetInCU: 0x782CF, offset: 0x782CF, size: 0x8, addend: 0x0, symName: __ZNSt3__119basic_ostringstreamIcNS_11char_traitsIcEENS_9allocatorIcEEEC1B8ue170006Ev, symObjAddr: 0xA0BC, symBinAddr: 0xD750, symSize: 0xD4 }
  - { offsetInCU: 0x78380, offset: 0x78380, size: 0x8, addend: 0x0, symName: _MLCTypeIndex2Info, symObjAddr: 0x5CFC, symBinAddr: 0x9390, symSize: 0x390 }
  - { offsetInCU: 0x78A6C, offset: 0x78A6C, size: 0x8, addend: 0x0, symName: __ZNKSt3__115basic_stringbufIcNS_11char_traitsIcEENS_9allocatorIcEEE3strEv, symObjAddr: 0xAA7C, symBinAddr: 0xE110, symSize: 0x214 }
  - { offsetInCU: 0x78FE0, offset: 0x78FE0, size: 0x8, addend: 0x0, symName: __ZNK3mlc4core8DictBase10IterateAllIZNKS_8UDictObj7__str__EvEUlPhP6MLCAnyS6_E_EEvT_, symObjAddr: 0xAC90, symBinAddr: 0xE324, symSize: 0xF8 }
  - { offsetInCU: 0x79013, offset: 0x79013, size: 0x8, addend: 0x0, symName: __ZNSt3__119basic_ostringstreamIcNS_11char_traitsIcEENS_9allocatorIcEEED1Ev, symObjAddr: 0xA190, symBinAddr: 0xD824, symSize: 0x8C }
  - { offsetInCU: 0x7924C, offset: 0x7924C, size: 0x8, addend: 0x0, symName: __ZN3mlc4core16ReflectionHelperD2Ev, symObjAddr: 0x9F10, symBinAddr: 0xD5A4, symSize: 0x10C }
  - { offsetInCU: 0x79AD8, offset: 0x79AD8, size: 0x8, addend: 0x0, symName: __ZN3mlc4core16ReflectionHelper8StaticFnIRFNS_3RefINS_6ObjectEEEvEEERS1_PKcOT_, symObjAddr: 0x38C, symBinAddr: 0x3A20, symSize: 0x158 }
  - { offsetInCU: 0x7A01A, offset: 0x7A01A, size: 0x8, addend: 0x0, symName: __ZN3mlc6InitOfINS_6ObjectEJEEENS_3RefIS1_EEDpOT0_, symObjAddr: 0x4E4, symBinAddr: 0x3B78, symSize: 0x4C }
  - { offsetInCU: 0x7A034, offset: 0x7A034, size: 0x8, addend: 0x0, symName: __ZN3mlc4core16ReflectionHelper5MemFnIPFNSt3__112basic_stringIcNS3_11char_traitsIcEENS3_9allocatorIcEEEENS_7AnyViewEEEERS1_PKcOT_, symObjAddr: 0xC258, symBinAddr: 0xF8EC, symSize: 0x154 }
  - { offsetInCU: 0x7A575, offset: 0x7A575, size: 0x8, addend: 0x0, symName: __ZN3mlc4core16ReflectionHelper13PrepareMethodIPFNSt3__112basic_stringIcNS3_11char_traitsIcEENS3_9allocatorIcEEEENS_7AnyViewEEEE13MLCTypeMethodPKcOT_, symObjAddr: 0xC3AC, symBinAddr: 0xFA40, symSize: 0x194 }
  - { offsetInCU: 0x7A589, offset: 0x7A589, size: 0x8, addend: 0x0, symName: _MLCTypeDefReflection, symObjAddr: 0x64E0, symBinAddr: 0x9B74, symSize: 0x370 }
  - { offsetInCU: 0x7B058, offset: 0x7B058, size: 0x8, addend: 0x0, symName: __ZN3mlc4core16ReflectionHelper13PrepareMethodIRFNS_3RefINS_6ObjectEEEvEEE13MLCTypeMethodPKcOT_, symObjAddr: 0x16D6C, symBinAddr: 0x1A400, symSize: 0x194 }
  - { offsetInCU: 0x7B6A9, offset: 0x7B6A9, size: 0x8, addend: 0x0, symName: __ZNKSt3__16vectorI13MLCTypeMethodNS_9allocatorIS1_EEE20__throw_length_errorB8ue170006Ev, symObjAddr: 0xCB5C, symBinAddr: 0x101F0, symSize: 0x14 }
  - { offsetInCU: 0x7B6D2, offset: 0x7B6D2, size: 0x8, addend: 0x0, symName: __ZN3mlclsERNSt3__113basic_ostreamIcNS0_11char_traitsIcEEEERKNS_3AnyE, symObjAddr: 0xCB70, symBinAddr: 0x10204, symSize: 0x24 }
  - { offsetInCU: 0x7B853, offset: 0x7B853, size: 0x8, addend: 0x0, symName: __ZN3mlc4base12ErrorBuilderC1EPKc12MLCByteArray, symObjAddr: 0xB41C, symBinAddr: 0xEAB0, symSize: 0xDC }
  - { offsetInCU: 0x7B95F, offset: 0x7B95F, size: 0x8, addend: 0x0, symName: __ZN3mlc4base12ErrorBuilderD1Ev, symObjAddr: 0xB4F8, symBinAddr: 0xEB8C, symSize: 0xC }
  - { offsetInCU: 0x7B98A, offset: 0x7B98A, size: 0x8, addend: 0x0, symName: __ZN3mlc4base12ErrorBuilderD2Ev, symObjAddr: 0xB504, symBinAddr: 0xEB98, symSize: 0xDC }
  - { offsetInCU: 0x7B9A7, offset: 0x7B9A7, size: 0x8, addend: 0x0, symName: __ZN3mlc4core16ReflectionHelper13FieldReadOnlyI8MLCErrorPKcEERS1_S5_MT_T0_, symObjAddr: 0x894, symBinAddr: 0x3F28, symSize: 0x190 }
  - { offsetInCU: 0x7BE97, offset: 0x7BE97, size: 0x8, addend: 0x0, symName: __ZN3mlc4core16ReflectionHelper5MemFnIMNS_8ErrorObjEKFNSt3__112basic_stringIcNS4_11char_traitsIcEENS4_9allocatorIcEEEEvEEERS1_PKcOT_, symObjAddr: 0xA24, symBinAddr: 0x40B8, symSize: 0x154 }
  - { offsetInCU: 0x7BEBA, offset: 0x7BEBA, size: 0x8, addend: 0x0, symName: __ZN3mlc4core16ReflectionHelper5MemFnIMNS_8ErrorObjEKFNSt3__112basic_stringIcNS4_11char_traitsIcEENS4_9allocatorIcEEEEvEEERS1_PKcOT_, symObjAddr: 0xA24, symBinAddr: 0x40B8, symSize: 0x154 }
  - { offsetInCU: 0x7C3FC, offset: 0x7C3FC, size: 0x8, addend: 0x0, symName: __ZNK3mlc8ErrorObj7__str__Ev, symObjAddr: 0xB78, symBinAddr: 0x420C, symSize: 0x90 }
  - { offsetInCU: 0x7C8AA, offset: 0x7C8AA, size: 0x8, addend: 0x0, symName: __ZZN3mlc4core16ReflectionHelper12PrepareFieldI8MLCErrorPKcEE12MLCTypeFieldS5_MT_T0_ENKUlvE_clEv, symObjAddr: 0x17718, symBinAddr: 0x1ADAC, symSize: 0x120 }
  - { offsetInCU: 0x7CE81, offset: 0x7CE81, size: 0x8, addend: 0x0, symName: __ZN3mlc4base8Type2StrIPKcE17GetTypeAnnotationEPNSt3__16vectorIP11MLCTypeInfoNS5_9allocatorIS8_EEEE, symObjAddr: 0x17838, symBinAddr: 0x1AECC, symSize: 0x114 }
  - { offsetInCU: 0x7CE8C, offset: 0x7CE8C, size: 0x8, addend: 0x0, symName: __ZNKSt3__16vectorI12MLCTypeFieldNS_9allocatorIS1_EEE20__throw_length_errorB8ue170006Ev, symObjAddr: 0x17ADC, symBinAddr: 0x1B170, symSize: 0x14 }
  - { offsetInCU: 0x7CEB5, offset: 0x7CEB5, size: 0x8, addend: 0x0, symName: __ZN3mlc4core16ReflectionHelper13PrepareMethodIMNS_8ErrorObjEKFNSt3__112basic_stringIcNS4_11char_traitsIcEENS4_9allocatorIcEEEEvEEE13MLCTypeMethodPKcOT_, symObjAddr: 0x17AF0, symBinAddr: 0x1B184, symSize: 0x198 }
  - { offsetInCU: 0x7CEC0, offset: 0x7CEC0, size: 0x8, addend: 0x0, symName: __ZN3mlc4core16ReflectionHelper13PrepareMethodIMNS_8ErrorObjEKFNSt3__112basic_stringIcNS4_11char_traitsIcEENS4_9allocatorIcEEEEvEEE13MLCTypeMethodPKcOT_, symObjAddr: 0x17AF0, symBinAddr: 0x1B184, symSize: 0x198 }
  - { offsetInCU: 0x7D5B9, offset: 0x7D5B9, size: 0x8, addend: 0x0, symName: __ZNK3mlc8ErrorObj7__str__Ev, symObjAddr: 0xB78, symBinAddr: 0x420C, symSize: 0x90 }
  - { offsetInCU: 0x7D946, offset: 0x7D946, size: 0x8, addend: 0x0, symName: __ZN3mlc4core12ObjPtrGetterINS_6StrObjEEEiP12MLCTypeFieldPvP6MLCAny, symObjAddr: 0xC08, symBinAddr: 0x429C, symSize: 0x24 }
  - { offsetInCU: 0x7D958, offset: 0x7D958, size: 0x8, addend: 0x0, symName: __ZNKSt3__112basic_stringIcNS_11char_traitsIcEENS_9allocatorIcEEE20__throw_length_errorB8ue170006Ev, symObjAddr: 0x9E60, symBinAddr: 0xD4F4, symSize: 0x14 }
  - { offsetInCU: 0x7D981, offset: 0x7D981, size: 0x8, addend: 0x0, symName: __ZNSt3__120__throw_length_errorB8ue170006EPKc, symObjAddr: 0x9E74, symBinAddr: 0xD508, symSize: 0x50 }
  - { offsetInCU: 0x7DBAB, offset: 0x7DBAB, size: 0x8, addend: 0x0, symName: __ZN3mlc4core16ReflectionHelper13FieldReadOnlyI6MLCStrxEERS1_PKcMT_T0_, symObjAddr: 0xFDC, symBinAddr: 0x4670, symSize: 0x190 }
  - { offsetInCU: 0x7E09B, offset: 0x7E09B, size: 0x8, addend: 0x0, symName: __ZN3mlc4core16ReflectionHelper13FieldReadOnlyI6MLCStrPcEERS1_PKcMT_T0_, symObjAddr: 0x116C, symBinAddr: 0x4800, symSize: 0x190 }
  - { offsetInCU: 0x7E0C2, offset: 0x7E0C2, size: 0x8, addend: 0x0, symName: __ZN3mlc4core16ReflectionHelper13FieldReadOnlyI6MLCStrPcEERS1_PKcMT_T0_, symObjAddr: 0x116C, symBinAddr: 0x4800, symSize: 0x190 }
  - { offsetInCU: 0x7E5B2, offset: 0x7E5B2, size: 0x8, addend: 0x0, symName: __ZN3mlc4core16ReflectionHelper5MemFnIMNS_6StrObjEKFNSt3__112basic_stringIcNS4_11char_traitsIcEENS4_9allocatorIcEEEEvEEERS1_PKcOT_, symObjAddr: 0x12FC, symBinAddr: 0x4990, symSize: 0x154 }
  - { offsetInCU: 0x7E5D5, offset: 0x7E5D5, size: 0x8, addend: 0x0, symName: __ZN3mlc4core16ReflectionHelper5MemFnIMNS_6StrObjEKFNSt3__112basic_stringIcNS4_11char_traitsIcEENS4_9allocatorIcEEEEvEEERS1_PKcOT_, symObjAddr: 0x12FC, symBinAddr: 0x4990, symSize: 0x154 }
  - { offsetInCU: 0x7EB17, offset: 0x7EB17, size: 0x8, addend: 0x0, symName: __ZNK3mlc6StrObj7__str__Ev, symObjAddr: 0x1450, symBinAddr: 0x4AE4, symSize: 0x1A4 }
  - { offsetInCU: 0x7EBC8, offset: 0x7EBC8, size: 0x8, addend: 0x0, symName: __ZZN3mlc4core16ReflectionHelper12PrepareFieldI6MLCStrxEE12MLCTypeFieldPKcMT_T0_ENKUlvE_clEv, symObjAddr: 0x187B4, symBinAddr: 0x1BE48, symSize: 0x120 }
  - { offsetInCU: 0x7F19F, offset: 0x7F19F, size: 0x8, addend: 0x0, symName: __ZN3mlc4base8Type2StrIxE17GetTypeAnnotationEPNSt3__16vectorIP11MLCTypeInfoNS3_9allocatorIS6_EEEE, symObjAddr: 0x188D4, symBinAddr: 0x1BF68, symSize: 0x114 }
  - { offsetInCU: 0x7F247, offset: 0x7F247, size: 0x8, addend: 0x0, symName: __ZZN3mlc4core16ReflectionHelper12PrepareFieldI6MLCStrPcEE12MLCTypeFieldPKcMT_T0_ENKUlvE_clEv, symObjAddr: 0x189E8, symBinAddr: 0x1C07C, symSize: 0x120 }
  - { offsetInCU: 0x7F81E, offset: 0x7F81E, size: 0x8, addend: 0x0, symName: __ZN3mlc4base8Type2StrIPcE17GetTypeAnnotationEPNSt3__16vectorIP11MLCTypeInfoNS4_9allocatorIS7_EEEE, symObjAddr: 0x18B08, symBinAddr: 0x1C19C, symSize: 0x114 }
  - { offsetInCU: 0x7F829, offset: 0x7F829, size: 0x8, addend: 0x0, symName: __ZN3mlc4core16ReflectionHelper13PrepareMethodIMNS_6StrObjEKFNSt3__112basic_stringIcNS4_11char_traitsIcEENS4_9allocatorIcEEEEvEEE13MLCTypeMethodPKcOT_, symObjAddr: 0x18C1C, symBinAddr: 0x1C2B0, symSize: 0x198 }
  - { offsetInCU: 0x7FFE4, offset: 0x7FFE4, size: 0x8, addend: 0x0, symName: __ZNK3mlc6StrObj7__str__Ev, symObjAddr: 0x1450, symBinAddr: 0x4AE4, symSize: 0x1A4 }
  - { offsetInCU: 0x804A1, offset: 0x804A1, size: 0x8, addend: 0x0, symName: __ZN3mlc4core16ReflectionHelper13FieldReadOnlyI7MLCDictxEERS1_PKcMT_T0_, symObjAddr: 0x1958, symBinAddr: 0x4FEC, symSize: 0x190 }
  - { offsetInCU: 0x80991, offset: 0x80991, size: 0x8, addend: 0x0, symName: __ZN3mlc4core16ReflectionHelper13FieldReadOnlyI7MLCDictPvEERS1_PKcMT_T0_, symObjAddr: 0x1AE8, symBinAddr: 0x517C, symSize: 0x190 }
  - { offsetInCU: 0x809B8, offset: 0x809B8, size: 0x8, addend: 0x0, symName: __ZN3mlc4core16ReflectionHelper13FieldReadOnlyI7MLCDictPvEERS1_PKcMT_T0_, symObjAddr: 0x1AE8, symBinAddr: 0x517C, symSize: 0x190 }
  - { offsetInCU: 0x80EA8, offset: 0x80EA8, size: 0x8, addend: 0x0, symName: __ZN3mlc4core16ReflectionHelper8StaticFnIRFviPKNS_7AnyViewEPNS_3AnyEEEERS1_PKcOT_, symObjAddr: 0x1C78, symBinAddr: 0x530C, symSize: 0x158 }
  - { offsetInCU: 0x80ECB, offset: 0x80ECB, size: 0x8, addend: 0x0, symName: __ZN3mlc4core16ReflectionHelper8StaticFnIRFviPKNS_7AnyViewEPNS_3AnyEEEERS1_PKcOT_, symObjAddr: 0x1C78, symBinAddr: 0x530C, symSize: 0x158 }
  - { offsetInCU: 0x8140D, offset: 0x8140D, size: 0x8, addend: 0x0, symName: __ZN3mlc4core8DictBase3ffiINS_8UDictObjEE3NewEiPKNS_7AnyViewEPNS_3AnyE, symObjAddr: 0x1DD0, symBinAddr: 0x5464, symSize: 0x588 }
  - { offsetInCU: 0x81427, offset: 0x81427, size: 0x8, addend: 0x0, symName: __ZN3mlc4core16ReflectionHelper5MemFnIMNS_8UDictObjEKFNSt3__112basic_stringIcNS4_11char_traitsIcEENS4_9allocatorIcEEEEvEEERS1_PKcOT_, symObjAddr: 0x2358, symBinAddr: 0x59EC, symSize: 0x154 }
  - { offsetInCU: 0x81969, offset: 0x81969, size: 0x8, addend: 0x0, symName: __ZNK3mlc8UDictObj7__str__Ev, symObjAddr: 0x24AC, symBinAddr: 0x5B40, symSize: 0x1A0 }
  - { offsetInCU: 0x81983, offset: 0x81983, size: 0x8, addend: 0x0, symName: __ZN3mlc4core16ReflectionHelper5MemFnIRFNS_3AnyEPNS_8UDictObjES3_EEERS1_PKcOT_, symObjAddr: 0x264C, symBinAddr: 0x5CE0, symSize: 0x154 }
  - { offsetInCU: 0x81EC5, offset: 0x81EC5, size: 0x8, addend: 0x0, symName: __ZN3mlc4core8DictBase3ffiINS_8UDictObjEE7GetItemEPS3_NS_3AnyE, symObjAddr: 0x27A0, symBinAddr: 0x5E34, symSize: 0xC4 }
  - { offsetInCU: 0x81EDF, offset: 0x81EDF, size: 0x8, addend: 0x0, symName: __ZN3mlc4core16ReflectionHelper5MemFnIRFNS_3AnyEPNS_8UDictObjExEEERS1_PKcOT_, symObjAddr: 0x2864, symBinAddr: 0x5EF8, symSize: 0x154 }
  - { offsetInCU: 0x82421, offset: 0x82421, size: 0x8, addend: 0x0, symName: __ZN3mlc4core8DictBase3ffiINS_8UDictObjEE6GetKeyEPS3_x, symObjAddr: 0x29B8, symBinAddr: 0x604C, symSize: 0x44 }
  - { offsetInCU: 0x8243B, offset: 0x8243B, size: 0x8, addend: 0x0, symName: __ZN3mlc4core16ReflectionHelper5MemFnIRFxPNS_8UDictObjExEEERS1_PKcOT_, symObjAddr: 0x2A40, symBinAddr: 0x60D4, symSize: 0x154 }
  - { offsetInCU: 0x8297D, offset: 0x8297D, size: 0x8, addend: 0x0, symName: __ZN3mlc4core8DictBase3ffiINS_8UDictObjEE7AdvanceEPS3_x, symObjAddr: 0x2B94, symBinAddr: 0x6228, symSize: 0x4C }
  - { offsetInCU: 0x82A2E, offset: 0x82A2E, size: 0x8, addend: 0x0, symName: __ZZN3mlc4core16ReflectionHelper12PrepareFieldI7MLCDictxEE12MLCTypeFieldPKcMT_T0_ENKUlvE_clEv, symObjAddr: 0x19878, symBinAddr: 0x1CF0C, symSize: 0x120 }
  - { offsetInCU: 0x83005, offset: 0x83005, size: 0x8, addend: 0x0, symName: __ZN3mlc4core19ReflectGetterSetterIPvE6GetterEP12MLCTypeFieldS2_P6MLCAny, symObjAddr: 0x19998, symBinAddr: 0x1D02C, symSize: 0x64 }
  - { offsetInCU: 0x830AD, offset: 0x830AD, size: 0x8, addend: 0x0, symName: __ZZN3mlc4core16ReflectionHelper12PrepareFieldI7MLCDictPvEE12MLCTypeFieldPKcMT_T0_ENKUlvE_clEv, symObjAddr: 0x199FC, symBinAddr: 0x1D090, symSize: 0x120 }
  - { offsetInCU: 0x83684, offset: 0x83684, size: 0x8, addend: 0x0, symName: __ZN3mlc4base8Type2StrIPvE17GetTypeAnnotationEPNSt3__16vectorIP11MLCTypeInfoNS4_9allocatorIS7_EEEE, symObjAddr: 0x19B1C, symBinAddr: 0x1D1B0, symSize: 0x114 }
  - { offsetInCU: 0x8368F, offset: 0x8368F, size: 0x8, addend: 0x0, symName: __ZN3mlc4core16ReflectionHelper13PrepareMethodIRFviPKNS_7AnyViewEPNS_3AnyEEEE13MLCTypeMethodPKcOT_, symObjAddr: 0x1A85C, symBinAddr: 0x1DEF0, symSize: 0x194 }
  - { offsetInCU: 0x83F9E, offset: 0x83F9E, size: 0x8, addend: 0x0, symName: __ZN3mlc4core8DictBase3ffiINS_8UDictObjEE3NewEiPKNS_7AnyViewEPNS_3AnyE, symObjAddr: 0x1DD0, symBinAddr: 0x5464, symSize: 0x588 }
  - { offsetInCU: 0x84BAF, offset: 0x84BAF, size: 0x8, addend: 0x0, symName: __ZN3mlc4core8DictBase14InsertOrLookupINS_8UDictObjEEEPNSt3__14pairI6MLCAnyS6_EENS_3AnyE, symObjAddr: 0x19C30, symBinAddr: 0x1D2C4, symSize: 0xB8 }
  - { offsetInCU: 0x84D71, offset: 0x84D71, size: 0x8, addend: 0x0, symName: __ZN3mlc4core16ReflectionHelper13PrepareMethodIMNS_8UDictObjEKFNSt3__112basic_stringIcNS4_11char_traitsIcEENS4_9allocatorIcEEEEvEEE13MLCTypeMethodPKcOT_, symObjAddr: 0x1AA10, symBinAddr: 0x1E0A4, symSize: 0x198 }
  - { offsetInCU: 0x853CF, offset: 0x853CF, size: 0x8, addend: 0x0, symName: __ZNK3mlc8UDictObj7__str__Ev, symObjAddr: 0x24AC, symBinAddr: 0x5B40, symSize: 0x1A0 }
  - { offsetInCU: 0x8576C, offset: 0x8576C, size: 0x8, addend: 0x0, symName: __ZNK3mlc4core8DictBase10IterateAllIZNKS_8UDictObj7__str__EvEUlPhP6MLCAnyS6_E_EEvT_, symObjAddr: 0xAC90, symBinAddr: 0xE324, symSize: 0xF8 }
  - { offsetInCU: 0x8590C, offset: 0x8590C, size: 0x8, addend: 0x0, symName: __ZN3mlc4core16ReflectionHelper13PrepareMethodIRFNS_3AnyEPNS_8UDictObjES3_EEE13MLCTypeMethodPKcOT_, symObjAddr: 0x1B9D0, symBinAddr: 0x1F064, symSize: 0x194 }
  - { offsetInCU: 0x86045, offset: 0x86045, size: 0x8, addend: 0x0, symName: __ZN3mlc4core8DictBase3ffiINS_8UDictObjEE7GetItemEPS3_NS_3AnyE, symObjAddr: 0x27A0, symBinAddr: 0x5E34, symSize: 0xC4 }
  - { offsetInCU: 0x861F6, offset: 0x861F6, size: 0x8, addend: 0x0, symName: __ZNK3mlc4core8DictBase6LookupINS0_7AnyHashENS0_8AnyEqualEEENS0_13DictBlockIterERK6MLCAny, symObjAddr: 0x1B868, symBinAddr: 0x1EEFC, symSize: 0x168 }
  - { offsetInCU: 0x863DA, offset: 0x863DA, size: 0x8, addend: 0x0, symName: __ZN3mlc4core16ReflectionHelper13PrepareMethodIRFNS_3AnyEPNS_8UDictObjExEEE13MLCTypeMethodPKcOT_, symObjAddr: 0x1C978, symBinAddr: 0x2000C, symSize: 0x194 }
  - { offsetInCU: 0x86A64, offset: 0x86A64, size: 0x8, addend: 0x0, symName: __ZN3mlc4core8DictBase3ffiINS_8UDictObjEE6GetKeyEPS3_x, symObjAddr: 0x29B8, symBinAddr: 0x604C, symSize: 0x44 }
  - { offsetInCU: 0x86A99, offset: 0x86A99, size: 0x8, addend: 0x0, symName: __ZN3mlc4core8DictBase3ffiINS_8UDictObjEE6GetKeyEPS3_x, symObjAddr: 0x29B8, symBinAddr: 0x604C, symSize: 0x44 }
  - { offsetInCU: 0x86AAE, offset: 0x86AAE, size: 0x8, addend: 0x0, symName: __ZN3mlc4core8DictBase3ffiINS_8UDictObjEE6GetKeyEPS3_x, symObjAddr: 0x29B8, symBinAddr: 0x604C, symSize: 0x44 }
  - { offsetInCU: 0x86B6F, offset: 0x86B6F, size: 0x8, addend: 0x0, symName: __ZN3mlc4core8DictBase3ffiINS_8UDictObjEE8GetValueEPS3_x, symObjAddr: 0x29FC, symBinAddr: 0x6090, symSize: 0x44 }
  - { offsetInCU: 0x86BA4, offset: 0x86BA4, size: 0x8, addend: 0x0, symName: __ZN3mlc4core8DictBase3ffiINS_8UDictObjEE8GetValueEPS3_x, symObjAddr: 0x29FC, symBinAddr: 0x6090, symSize: 0x44 }
  - { offsetInCU: 0x86BB9, offset: 0x86BB9, size: 0x8, addend: 0x0, symName: __ZN3mlc4core8DictBase3ffiINS_8UDictObjEE8GetValueEPS3_x, symObjAddr: 0x29FC, symBinAddr: 0x6090, symSize: 0x44 }
  - { offsetInCU: 0x86C7A, offset: 0x86C7A, size: 0x8, addend: 0x0, symName: __ZN3mlc4core16ReflectionHelper13PrepareMethodIRFxPNS_8UDictObjExEEE13MLCTypeMethodPKcOT_, symObjAddr: 0x1D9B4, symBinAddr: 0x21048, symSize: 0x194 }
  - { offsetInCU: 0x8731E, offset: 0x8731E, size: 0x8, addend: 0x0, symName: __ZN3mlc4core8DictBase3ffiINS_8UDictObjEE7AdvanceEPS3_x, symObjAddr: 0x2B94, symBinAddr: 0x6228, symSize: 0x4C }
  - { offsetInCU: 0x87365, offset: 0x87365, size: 0x8, addend: 0x0, symName: __ZN3mlc4core8DictBase3ffiINS_8UDictObjEE7AdvanceEPS3_x, symObjAddr: 0x2B94, symBinAddr: 0x6228, symSize: 0x4C }
  - { offsetInCU: 0x87383, offset: 0x87383, size: 0x8, addend: 0x0, symName: __ZN3mlc4core8DictBase3ffiINS_8UDictObjEE7AdvanceEPS3_x, symObjAddr: 0x2B94, symBinAddr: 0x6228, symSize: 0x4C }
  - { offsetInCU: 0x874DE, offset: 0x874DE, size: 0x8, addend: 0x0, symName: __ZN3mlc4core16ReflectionHelper8StaticFnIRFNSt3__112basic_stringIcNS3_11char_traitsIcEENS3_9allocatorIcEEEENS_7AnyViewEEEERS1_PKcOT_, symObjAddr: 0x2F44, symBinAddr: 0x65D8, symSize: 0x158 }
  - { offsetInCU: 0x87A20, offset: 0x87A20, size: 0x8, addend: 0x0, symName: __ZN3mlc4core16ReflectionHelper16DefaultStrMethodENS_7AnyViewE, symObjAddr: 0x309C, symBinAddr: 0x6730, symSize: 0x268 }
  - { offsetInCU: 0x87A34, offset: 0x87A34, size: 0x8, addend: 0x0, symName: __ZN3mlc4core16ReflectionHelper13PrepareMethodIRFNSt3__112basic_stringIcNS3_11char_traitsIcEENS3_9allocatorIcEEEENS_7AnyViewEEEE13MLCTypeMethodPKcOT_, symObjAddr: 0x1E9B4, symBinAddr: 0x22048, symSize: 0x194 }
  - { offsetInCU: 0x88209, offset: 0x88209, size: 0x8, addend: 0x0, symName: __ZN3mlc4core16ReflectionHelper16DefaultStrMethodENS_7AnyViewE, symObjAddr: 0x309C, symBinAddr: 0x6730, symSize: 0x268 }
  - { offsetInCU: 0x88841, offset: 0x88841, size: 0x8, addend: 0x0, symName: __ZN3mlc4core16ReflectionHelper13FieldReadOnlyI7MLCListxEERS1_PKcMT_T0_, symObjAddr: 0x3668, symBinAddr: 0x6CFC, symSize: 0x190 }
  - { offsetInCU: 0x88D2F, offset: 0x88D2F, size: 0x8, addend: 0x0, symName: __ZN3mlc4core16ReflectionHelper13FieldReadOnlyI7MLCListPvEERS1_PKcMT_T0_, symObjAddr: 0x37F8, symBinAddr: 0x6E8C, symSize: 0x190 }
  - { offsetInCU: 0x88D56, offset: 0x88D56, size: 0x8, addend: 0x0, symName: __ZN3mlc4core16ReflectionHelper13FieldReadOnlyI7MLCListPvEERS1_PKcMT_T0_, symObjAddr: 0x37F8, symBinAddr: 0x6E8C, symSize: 0x190 }
  - { offsetInCU: 0x89244, offset: 0x89244, size: 0x8, addend: 0x0, symName: __ZN3mlc4core16ReflectionHelper8StaticFnIPFviPKNS_7AnyViewEPNS_3AnyEEEERS1_PKcOT_, symObjAddr: 0x3988, symBinAddr: 0x701C, symSize: 0x158 }
  - { offsetInCU: 0x89267, offset: 0x89267, size: 0x8, addend: 0x0, symName: __ZN3mlc4core16ReflectionHelper8StaticFnIPFviPKNS_7AnyViewEPNS_3AnyEEEERS1_PKcOT_, symObjAddr: 0x3988, symBinAddr: 0x701C, symSize: 0x158 }
  - { offsetInCU: 0x897A8, offset: 0x897A8, size: 0x8, addend: 0x0, symName: __ZN3mlc4core8ListBase3ffiINS_8UListObjEE3NewEiPKNS_7AnyViewEPNS_3AnyE, symObjAddr: 0x3AE0, symBinAddr: 0x7174, symSize: 0x31C }
  - { offsetInCU: 0x897C2, offset: 0x897C2, size: 0x8, addend: 0x0, symName: __ZN3mlc4core16ReflectionHelper5MemFnIMNS_8UListObjEKFNSt3__112basic_stringIcNS4_11char_traitsIcEENS4_9allocatorIcEEEEvEEERS1_PKcOT_, symObjAddr: 0x3DFC, symBinAddr: 0x7490, symSize: 0x154 }
  - { offsetInCU: 0x89D03, offset: 0x89D03, size: 0x8, addend: 0x0, symName: __ZNK3mlc8UListObj7__str__Ev, symObjAddr: 0x3F50, symBinAddr: 0x75E4, symSize: 0x208 }
  - { offsetInCU: 0x89D1D, offset: 0x89D1D, size: 0x8, addend: 0x0, symName: __ZN3mlc4core16ReflectionHelper5MemFnIPFNS_3AnyEPNS_8UListObjExEEERS1_PKcOT_, symObjAddr: 0x4158, symBinAddr: 0x77EC, symSize: 0x154 }
  - { offsetInCU: 0x8A25E, offset: 0x8A25E, size: 0x8, addend: 0x0, symName: __ZN3mlc4core8ListBase3ffiINS_8UListObjEE2AtEPS3_x, symObjAddr: 0x42AC, symBinAddr: 0x7940, symSize: 0x30 }
  - { offsetInCU: 0x8A30F, offset: 0x8A30F, size: 0x8, addend: 0x0, symName: __ZZN3mlc4core16ReflectionHelper12PrepareFieldI7MLCListxEE12MLCTypeFieldPKcMT_T0_ENKUlvE_clEv, symObjAddr: 0x1EB48, symBinAddr: 0x221DC, symSize: 0x120 }
  - { offsetInCU: 0x8A8E6, offset: 0x8A8E6, size: 0x8, addend: 0x0, symName: __ZZN3mlc4core16ReflectionHelper12PrepareFieldI7MLCListPvEE12MLCTypeFieldPKcMT_T0_ENKUlvE_clEv, symObjAddr: 0x1EC68, symBinAddr: 0x222FC, symSize: 0x120 }
  - { offsetInCU: 0x8A98E, offset: 0x8A98E, size: 0x8, addend: 0x0, symName: __ZZN3mlc4core16ReflectionHelper12PrepareFieldI7MLCListPvEE12MLCTypeFieldPKcMT_T0_ENKUlvE_clEv, symObjAddr: 0x1EC68, symBinAddr: 0x222FC, symSize: 0x120 }
  - { offsetInCU: 0x8AF65, offset: 0x8AF65, size: 0x8, addend: 0x0, symName: __ZN3mlc22DefaultObjectAllocatorINS_8UListObjEE7DeleterEPv, symObjAddr: 0x1ED88, symBinAddr: 0x2241C, symSize: 0x98 }
  - { offsetInCU: 0x8AF70, offset: 0x8AF70, size: 0x8, addend: 0x0, symName: __ZN3mlc4core16ReflectionHelper13PrepareMethodIPFviPKNS_7AnyViewEPNS_3AnyEEEE13MLCTypeMethodPKcOT_, symObjAddr: 0x1F304, symBinAddr: 0x22998, symSize: 0x194 }
  - { offsetInCU: 0x8BAE5, offset: 0x8BAE5, size: 0x8, addend: 0x0, symName: __ZN3mlc4core8ListBase3ffiINS_8UListObjEE3NewEiPKNS_7AnyViewEPNS_3AnyE, symObjAddr: 0x3AE0, symBinAddr: 0x7174, symSize: 0x31C }
  - { offsetInCU: 0x8C540, offset: 0x8C540, size: 0x8, addend: 0x0, symName: __ZNSt3__16vectorIN3mlc3AnyENS_9allocatorIS2_EEEC2IPKNS1_7AnyViewELi0EEET_SA_, symObjAddr: 0x1EE20, symBinAddr: 0x224B4, symSize: 0x120 }
  - { offsetInCU: 0x8C9DB, offset: 0x8C9DB, size: 0x8, addend: 0x0, symName: __ZN3mlc4core8ListBase14ListRangeCheckExxx, symObjAddr: 0x1F118, symBinAddr: 0x227AC, symSize: 0x1EC }
  - { offsetInCU: 0x8CCA9, offset: 0x8CCA9, size: 0x8, addend: 0x0, symName: __ZNSt3__16vectorIN3mlc3AnyENS_9allocatorIS2_EEED1B8ue170006Ev, symObjAddr: 0xA01C, symBinAddr: 0xD6B0, symSize: 0xA0 }
  - { offsetInCU: 0x8CEB2, offset: 0x8CEB2, size: 0x8, addend: 0x0, symName: __ZN3mlc4core16ReflectionHelper13PrepareMethodIMNS_8UListObjEKFNSt3__112basic_stringIcNS4_11char_traitsIcEENS4_9allocatorIcEEEEvEEE13MLCTypeMethodPKcOT_, symObjAddr: 0x1F498, symBinAddr: 0x22B2C, symSize: 0x198 }
  - { offsetInCU: 0x8D547, offset: 0x8D547, size: 0x8, addend: 0x0, symName: __ZNK3mlc8UListObj7__str__Ev, symObjAddr: 0x3F50, symBinAddr: 0x75E4, symSize: 0x208 }
  - { offsetInCU: 0x8DB96, offset: 0x8DB96, size: 0x8, addend: 0x0, symName: __ZN3mlc4core16ReflectionHelper13PrepareMethodIPFNS_3AnyEPNS_8UListObjExEEE13MLCTypeMethodPKcOT_, symObjAddr: 0x201DC, symBinAddr: 0x23870, symSize: 0x194 }
  - { offsetInCU: 0x8E220, offset: 0x8E220, size: 0x8, addend: 0x0, symName: __ZN3mlc4core8ListBase3ffiINS_8UListObjEE2AtEPS3_x, symObjAddr: 0x42AC, symBinAddr: 0x7940, symSize: 0x30 }
  - { offsetInCU: 0x8E251, offset: 0x8E251, size: 0x8, addend: 0x0, symName: __ZN3mlc4core8ListBase3ffiINS_8UListObjEE2AtEPS3_x, symObjAddr: 0x42AC, symBinAddr: 0x7940, symSize: 0x30 }
  - { offsetInCU: 0x8E273, offset: 0x8E273, size: 0x8, addend: 0x0, symName: __ZN3mlc4core8ListBase3ffiINS_8UListObjEE2AtEPS3_x, symObjAddr: 0x42AC, symBinAddr: 0x7940, symSize: 0x30 }
  - { offsetInCU: 0x8E30C, offset: 0x8E30C, size: 0x8, addend: 0x0, symName: __ZN3mlc4core16ReflectionHelper5MemFnIPFNSt3__112basic_stringIcNS3_11char_traitsIcEENS3_9allocatorIcEEEEPvEEERS1_PKcOT_, symObjAddr: 0x42DC, symBinAddr: 0x7970, symSize: 0x154 }
  - { offsetInCU: 0x8E84D, offset: 0x8E84D, size: 0x8, addend: 0x0, symName: __ZN3mlc4base10TypeTraitsIPvvE7__str__ES2_, symObjAddr: 0x4430, symBinAddr: 0x7AC4, symSize: 0x180 }
  - { offsetInCU: 0x8E861, offset: 0x8E861, size: 0x8, addend: 0x0, symName: __ZN3mlc4core16ReflectionHelper13PrepareMethodIPFNSt3__112basic_stringIcNS3_11char_traitsIcEENS3_9allocatorIcEEEEPvEEE13MLCTypeMethodPKcOT_, symObjAddr: 0x2139C, symBinAddr: 0x24A30, symSize: 0x194 }
  - { offsetInCU: 0x8EEB4, offset: 0x8EEB4, size: 0x8, addend: 0x0, symName: __ZN3mlc4base10TypeTraitsIPvvE7__str__ES2_, symObjAddr: 0x4430, symBinAddr: 0x7AC4, symSize: 0x180 }
  - { offsetInCU: 0x8F346, offset: 0x8F346, size: 0x8, addend: 0x0, symName: __ZN3mlc4core16ReflectionHelper5MemFnIPFNSt3__112basic_stringIcNS3_11char_traitsIcEENS3_9allocatorIcEEEExEEERS1_PKcOT_, symObjAddr: 0x45B0, symBinAddr: 0x7C44, symSize: 0x154 }
  - { offsetInCU: 0x8F887, offset: 0x8F887, size: 0x8, addend: 0x0, symName: __ZN3mlc4base10TypeTraitsIxvE7__str__Ex, symObjAddr: 0x4704, symBinAddr: 0x7D98, symSize: 0x4 }
  - { offsetInCU: 0x8F89B, offset: 0x8F89B, size: 0x8, addend: 0x0, symName: __ZN3mlc4core16ReflectionHelper13PrepareMethodIPFNSt3__112basic_stringIcNS3_11char_traitsIcEENS3_9allocatorIcEEEExEEE13MLCTypeMethodPKcOT_, symObjAddr: 0x21E18, symBinAddr: 0x254AC, symSize: 0x194 }
  - { offsetInCU: 0x8FEEE, offset: 0x8FEEE, size: 0x8, addend: 0x0, symName: __ZN3mlc4base10TypeTraitsIxvE7__str__Ex, symObjAddr: 0x4704, symBinAddr: 0x7D98, symSize: 0x4 }
  - { offsetInCU: 0x8FF12, offset: 0x8FF12, size: 0x8, addend: 0x0, symName: __ZN3mlc4base10TypeTraitsIxvE7__str__Ex, symObjAddr: 0x4704, symBinAddr: 0x7D98, symSize: 0x4 }
  - { offsetInCU: 0x8FF32, offset: 0x8FF32, size: 0x8, addend: 0x0, symName: __ZN3mlc4core16ReflectionHelper5MemFnIPFNSt3__112basic_stringIcNS3_11char_traitsIcEENS3_9allocatorIcEEEEdEEERS1_PKcOT_, symObjAddr: 0x4708, symBinAddr: 0x7D9C, symSize: 0x154 }
  - { offsetInCU: 0x90473, offset: 0x90473, size: 0x8, addend: 0x0, symName: __ZN3mlc4base10TypeTraitsIdvE7__str__Ed, symObjAddr: 0x485C, symBinAddr: 0x7EF0, symSize: 0x4 }
  - { offsetInCU: 0x90487, offset: 0x90487, size: 0x8, addend: 0x0, symName: __ZN3mlc4core16ReflectionHelper13PrepareMethodIPFNSt3__112basic_stringIcNS3_11char_traitsIcEENS3_9allocatorIcEEEEdEEE13MLCTypeMethodPKcOT_, symObjAddr: 0x22884, symBinAddr: 0x25F18, symSize: 0x194 }
  - { offsetInCU: 0x90ADA, offset: 0x90ADA, size: 0x8, addend: 0x0, symName: __ZN3mlc4base10TypeTraitsIdvE7__str__Ed, symObjAddr: 0x485C, symBinAddr: 0x7EF0, symSize: 0x4 }
  - { offsetInCU: 0x90AFF, offset: 0x90AFF, size: 0x8, addend: 0x0, symName: __ZN3mlc4base10TypeTraitsIdvE7__str__Ed, symObjAddr: 0x485C, symBinAddr: 0x7EF0, symSize: 0x4 }
  - { offsetInCU: 0x90ECD, offset: 0x90ECD, size: 0x8, addend: 0x0, symName: __ZNSt3__16vectorIN3mlc3AnyENS_9allocatorIS2_EEE21__push_back_slow_pathIS2_EEvOT_, symObjAddr: 0xC9CC, symBinAddr: 0x10060, symSize: 0x17C }
  - { offsetInCU: 0x91434, offset: 0x91434, size: 0x8, addend: 0x0, symName: __ZN3mlc4core16ReflectionHelper5MemFnIPFNSt3__112basic_stringIcNS3_11char_traitsIcEENS3_9allocatorIcEEEE8DLDeviceEEERS1_PKcOT_, symObjAddr: 0x4860, symBinAddr: 0x7EF4, symSize: 0x154 }
  - { offsetInCU: 0x91975, offset: 0x91975, size: 0x8, addend: 0x0, symName: __ZN3mlc4base10TypeTraitsI8DLDevicevE7__str__ES2_, symObjAddr: 0x49B4, symBinAddr: 0x8048, symSize: 0x1A8 }
  - { offsetInCU: 0x91989, offset: 0x91989, size: 0x8, addend: 0x0, symName: __ZN3mlc4core16ReflectionHelper13PrepareMethodIPFNSt3__112basic_stringIcNS3_11char_traitsIcEENS3_9allocatorIcEEEE8DLDeviceEEE13MLCTypeMethodPKcOT_, symObjAddr: 0x239C0, symBinAddr: 0x27054, symSize: 0x194 }
  - { offsetInCU: 0x91FDC, offset: 0x91FDC, size: 0x8, addend: 0x0, symName: __ZN3mlc4base10TypeTraitsI8DLDevicevE7__str__ES2_, symObjAddr: 0x49B4, symBinAddr: 0x8048, symSize: 0x1A8 }
  - { offsetInCU: 0x9260A, offset: 0x9260A, size: 0x8, addend: 0x0, symName: __ZN3mlc4core16ReflectionHelper5MemFnIPFNSt3__112basic_stringIcNS3_11char_traitsIcEENS3_9allocatorIcEEEE10DLDataTypeEEERS1_PKcOT_, symObjAddr: 0x4B5C, symBinAddr: 0x81F0, symSize: 0x154 }
  - { offsetInCU: 0x92B4B, offset: 0x92B4B, size: 0x8, addend: 0x0, symName: __ZN3mlc4base10TypeTraitsI10DLDataTypevE7__str__ES2_, symObjAddr: 0x4CB0, symBinAddr: 0x8344, symSize: 0x240 }
  - { offsetInCU: 0x92B5F, offset: 0x92B5F, size: 0x8, addend: 0x0, symName: __ZN3mlc4core16ReflectionHelper13PrepareMethodIPFNSt3__112basic_stringIcNS3_11char_traitsIcEENS3_9allocatorIcEEEE10DLDataTypeEEE13MLCTypeMethodPKcOT_, symObjAddr: 0x24C40, symBinAddr: 0x282D4, symSize: 0x194 }
  - { offsetInCU: 0x931B2, offset: 0x931B2, size: 0x8, addend: 0x0, symName: __ZN3mlc4base10TypeTraitsI10DLDataTypevE7__str__ES2_, symObjAddr: 0x4CB0, symBinAddr: 0x8344, symSize: 0x240 }
  - { offsetInCU: 0x93658, offset: 0x93658, size: 0x8, addend: 0x0, symName: __ZN3mlc4core16ReflectionHelper5MemFnIPFNSt3__112basic_stringIcNS3_11char_traitsIcEENS3_9allocatorIcEEEEPKcEEERS1_SB_OT_, symObjAddr: 0x4EF0, symBinAddr: 0x8584, symSize: 0x154 }
  - { offsetInCU: 0x93B99, offset: 0x93B99, size: 0x8, addend: 0x0, symName: __ZN3mlc4base10TypeTraitsIPKcvE7__str__ES3_, symObjAddr: 0x5044, symBinAddr: 0x86D8, symSize: 0x158 }
  - { offsetInCU: 0x93BAD, offset: 0x93BAD, size: 0x8, addend: 0x0, symName: __ZN3mlc4core16ReflectionHelper13PrepareMethodIPFNSt3__112basic_stringIcNS3_11char_traitsIcEENS3_9allocatorIcEEEEPKcEEE13MLCTypeMethodSB_OT_, symObjAddr: 0x2580C, symBinAddr: 0x28EA0, symSize: 0x194 }
  - { offsetInCU: 0x9428E, offset: 0x9428E, size: 0x8, addend: 0x0, symName: __ZN3mlc4base10TypeTraitsIPKcvE7__str__ES3_, symObjAddr: 0x5044, symBinAddr: 0x86D8, symSize: 0x158 }
  - { offsetInCU: 0x94AF3, offset: 0x94AF3, size: 0x8, addend: 0x0, symName: __ZN3mlc8registry9TypeTable3NewEv, symObjAddr: 0x520C, symBinAddr: 0x88A0, symSize: 0x1E4 }
  - { offsetInCU: 0x95EF8, offset: 0x95EF8, size: 0x8, addend: 0x0, symName: __ZNSt3__16vectorINS_10unique_ptrIN3mlc8registry15TypeInfoWrapperENS_14default_deleteIS4_EEEENS_9allocatorIS7_EEE8__appendEm, symObjAddr: 0xDD50, symBinAddr: 0x113E4, symSize: 0x168 }
  - { offsetInCU: 0x965D1, offset: 0x965D1, size: 0x8, addend: 0x0, symName: __ZNSt3__112__hash_tableINS_17__hash_value_typeINS_12basic_stringIcNS_11char_traitsIcEENS_9allocatorIcEEEEP11MLCTypeInfoEENS_22__unordered_map_hasherIS7_SA_NS_4hashIS7_EENS_8equal_toIS7_EELb1EEENS_21__unordered_map_equalIS7_SA_SF_SD_Lb1EEENS5_ISA_EEE16__reserve_uniqueB8ue170006Em, symObjAddr: 0xEF10, symBinAddr: 0x125A4, symSize: 0xE8 }
  - { offsetInCU: 0x966F3, offset: 0x966F3, size: 0x8, addend: 0x0, symName: __ZN3mlc8registry9TypeTable12TypeRegisterEiiPKc, symObjAddr: 0x5850, symBinAddr: 0x8EE4, symSize: 0x4A0 }
  - { offsetInCU: 0x97970, offset: 0x97970, size: 0x8, addend: 0x0, symName: __ZN3mlc3AnyD1Ev, symObjAddr: 0x53F0, symBinAddr: 0x8A84, symSize: 0x5C }
  - { offsetInCU: 0x97A60, offset: 0x97A60, size: 0x8, addend: 0x0, symName: _MLCGetLastError, symObjAddr: 0x544C, symBinAddr: 0x8AE0, symSize: 0x98 }
  - { offsetInCU: 0x98248, offset: 0x98248, size: 0x8, addend: 0x0, symName: __ZNSt3__112__hash_tableINS_17__hash_value_typeINS_12basic_stringIcNS_11char_traitsIcEENS_9allocatorIcEEEEP11MLCTypeInfoEENS_22__unordered_map_hasherIS7_SA_NS_4hashIS7_EENS_8equal_toIS7_EELb1EEENS_21__unordered_map_equalIS7_SA_SF_SD_Lb1EEENS5_ISA_EEE4findIS7_EENS_15__hash_iteratorIPNS_11__hash_nodeISA_PvEEEERKT_, symObjAddr: 0x1071C, symBinAddr: 0x13DB0, symSize: 0x184 }
  - { offsetInCU: 0x98508, offset: 0x98508, size: 0x8, addend: 0x0, symName: __ZN3mlc8registry15TypeInfoWrapper5ResetEv, symObjAddr: 0xDF0C, symBinAddr: 0x115A0, symSize: 0x17C }
  - { offsetInCU: 0x98878, offset: 0x98878, size: 0x8, addend: 0x0, symName: __ZNSt3__112__hash_tableINS_17__hash_value_typeINS_12basic_stringIcNS_11char_traitsIcEENS_9allocatorIcEEEEP11MLCTypeInfoEENS_22__unordered_map_hasherIS7_SA_NS_4hashIS7_EENS_8equal_toIS7_EELb1EEENS_21__unordered_map_equalIS7_SA_SF_SD_Lb1EEENS5_ISA_EEE25__emplace_unique_key_argsIS7_JRKNS_21piecewise_construct_tENS_5tupleIJOS7_EEENSP_IJEEEEEENS_4pairINS_15__hash_iteratorIPNS_11__hash_nodeISA_PvEEEEbEERKT_DpOT0_, symObjAddr: 0x108B4, symBinAddr: 0x13F48, symSize: 0x3A0 }
  - { offsetInCU: 0x99113, offset: 0x99113, size: 0x8, addend: 0x0, symName: __ZN3mlc8registry9TypeTable8NewArrayIcEEPT_x, symObjAddr: 0x10CA0, symBinAddr: 0x14334, symSize: 0xCC }
  - { offsetInCU: 0x993F4, offset: 0x993F4, size: 0x8, addend: 0x0, symName: __ZN3mlc8registry9TypeTable8NewArrayIiEEPT_x, symObjAddr: 0x10010, symBinAddr: 0x136A4, symSize: 0xCC }
  - { offsetInCU: 0x996D5, offset: 0x996D5, size: 0x8, addend: 0x0, symName: __ZNKSt3__16vectorINS_10unique_ptrIN3mlc8registry15TypeInfoWrapperENS_14default_deleteIS4_EEEENS_9allocatorIS7_EEE20__throw_out_of_rangeB8ue170006Ev, symObjAddr: 0x108A0, symBinAddr: 0x13F34, symSize: 0x14 }
  - { offsetInCU: 0x996FE, offset: 0x996FE, size: 0x8, addend: 0x0, symName: __ZNSt3__112__hash_tableINS_17__hash_value_typeINS_12basic_stringIcNS_11char_traitsIcEENS_9allocatorIcEEEEP11MLCTypeInfoEENS_22__unordered_map_hasherIS7_SA_NS_4hashIS7_EENS_8equal_toIS7_EELb1EEENS_21__unordered_map_equalIS7_SA_SF_SD_Lb1EEENS5_ISA_EEE25__emplace_unique_key_argsIS7_JRKNS_21piecewise_construct_tENS_5tupleIJOS7_EEENSP_IJEEEEEENS_4pairINS_15__hash_iteratorIPNS_11__hash_nodeISA_PvEEEEbEERKT_DpOT0_, symObjAddr: 0x108B4, symBinAddr: 0x13F48, symSize: 0x3A0 }
  - { offsetInCU: 0x99709, offset: 0x99709, size: 0x8, addend: 0x0, symName: __ZNSt3__110unique_ptrIN3mlc8registry15TypeInfoWrapperENS_14default_deleteIS3_EEED1B8ue170006Ev, symObjAddr: 0xDECC, symBinAddr: 0x11560, symSize: 0x40 }
  - { offsetInCU: 0x997CB, offset: 0x997CB, size: 0x8, addend: 0x0, symName: _MLCTypeKey2Info, symObjAddr: 0x608C, symBinAddr: 0x9720, symSize: 0x35C }
  - { offsetInCU: 0x99E4E, offset: 0x99E4E, size: 0x8, addend: 0x0, symName: __ZN3mlc8registry9TypeTable11GetTypeInfoEPKc, symObjAddr: 0x63E8, symBinAddr: 0x9A7C, symSize: 0xF8 }
  - { offsetInCU: 0x9A487, offset: 0x9A487, size: 0x8, addend: 0x0, symName: __ZN3mlc8registry9TypeTable17TypeDefReflectionEixP12MLCTypeFieldxP13MLCTypeMethod, symObjAddr: 0x6850, symBinAddr: 0x9EE4, symSize: 0x11C }
  - { offsetInCU: 0x9A66C, offset: 0x9A66C, size: 0x8, addend: 0x0, symName: __ZN3mlc8registry15TypeInfoWrapper9SetFieldsExP12MLCTypeField, symObjAddr: 0x113BC, symBinAddr: 0x14A50, symSize: 0x1E8 }
  - { offsetInCU: 0x9AACF, offset: 0x9AACF, size: 0x8, addend: 0x0, symName: __ZN3mlc8registry15TypeInfoWrapper10SetMethodsExP13MLCTypeMethod, symObjAddr: 0x115A4, symBinAddr: 0x14C38, symSize: 0x2C0 }
  - { offsetInCU: 0x9B4C2, offset: 0x9B4C2, size: 0x8, addend: 0x0, symName: _MLCVTableSet, symObjAddr: 0x696C, symBinAddr: 0xA000, symSize: 0x360 }
  - { offsetInCU: 0x9BB60, offset: 0x9BB60, size: 0x8, addend: 0x0, symName: __ZN3mlc8registry9TypeTable9SetVTableEiPKcPNS_7AnyViewE, symObjAddr: 0x6CCC, symBinAddr: 0xA360, symSize: 0x390 }
  - { offsetInCU: 0x9CA10, offset: 0x9CA10, size: 0x8, addend: 0x0, symName: __ZNSt3__112__hash_tableINS_17__hash_value_typeINS_12basic_stringIcNS_11char_traitsIcEENS_9allocatorIcEEEENS_13unordered_mapIiPN3mlc7FuncObjENS_4hashIiEENS_8equal_toIiEENS5_INS_4pairIKiSB_EEEEEEEENS_22__unordered_map_hasherIS7_SL_NSC_IS7_EENSE_IS7_EELb1EEENS_21__unordered_map_equalIS7_SL_SO_SN_Lb1EEENS5_ISL_EEE25__emplace_unique_key_argsIS7_JRKNS_21piecewise_construct_tENS_5tupleIJOS7_EEENSY_IJEEEEEENSG_INS_15__hash_iteratorIPNS_11__hash_nodeISL_PvEEEEbEERKT_DpOT0_, symObjAddr: 0x135FC, symBinAddr: 0x16C90, symSize: 0x3B0 }
  - { offsetInCU: 0x9D428, offset: 0x9D428, size: 0x8, addend: 0x0, symName: __ZNSt3__112__hash_tableINS_17__hash_value_typeIiPN3mlc7FuncObjEEENS_22__unordered_map_hasherIiS5_NS_4hashIiEENS_8equal_toIiEELb1EEENS_21__unordered_map_equalIiS5_SA_S8_Lb1EEENS_9allocatorIS5_EEE25__emplace_unique_key_argsIiJRKNS_21piecewise_construct_tENS_5tupleIJRKiEEENSL_IJODnEEEEEENS_4pairINS_15__hash_iteratorIPNS_11__hash_nodeIS5_PvEEEEbEERKT_DpOT0_, symObjAddr: 0x13B84, symBinAddr: 0x17218, symSize: 0x2C4 }
  - { offsetInCU: 0x9DAFC, offset: 0x9DAFC, size: 0x8, addend: 0x0, symName: __ZN3mlc8registry9TypeTable9NewObjPtrINS_7FuncObjEEEvPPT_S5_, symObjAddr: 0x13404, symBinAddr: 0x16A98, symSize: 0xFC }
  - { offsetInCU: 0x9DE31, offset: 0x9DE31, size: 0x8, addend: 0x0, symName: __ZN3mlc4base8Type2StrIPNS_7FuncObjEE3RunEv, symObjAddr: 0x14FDC, symBinAddr: 0x18670, symSize: 0xEC }
  - { offsetInCU: 0x9E5E1, offset: 0x9E5E1, size: 0x8, addend: 0x0, symName: _MLCVTableGet, symObjAddr: 0x705C, symBinAddr: 0xA6F0, symSize: 0x438 }
  - { offsetInCU: 0x9EEFD, offset: 0x9EEFD, size: 0x8, addend: 0x0, symName: __ZN3mlc8registry9TypeTable9GetVTableEiPKc, symObjAddr: 0x7494, symBinAddr: 0xAB28, symSize: 0x1B8 }
  - { offsetInCU: 0x9F84A, offset: 0x9F84A, size: 0x8, addend: 0x0, symName: __Z25MLCDynTypeTypeTableCreatePPv, symObjAddr: 0x764C, symBinAddr: 0xACE0, symSize: 0x2F4 }
  - { offsetInCU: 0x9FE98, offset: 0x9FE98, size: 0x8, addend: 0x0, symName: __Z26MLCDynTypeTypeTableDestroyPv, symObjAddr: 0x7940, symBinAddr: 0xAFD4, symSize: 0x20 }
  - { offsetInCU: 0x9FEEF, offset: 0x9FEEF, size: 0x8, addend: 0x0, symName: __ZN3mlc8registry9TypeTableD2Ev, symObjAddr: 0x150C8, symBinAddr: 0x1875C, symSize: 0x19C }
  - { offsetInCU: 0xA114A, offset: 0xA114A, size: 0x8, addend: 0x0, symName: _MLCAnyIncRef, symObjAddr: 0x7960, symBinAddr: 0xAFF4, symSize: 0x28 }
  - { offsetInCU: 0xA11A8, offset: 0xA11A8, size: 0x8, addend: 0x0, symName: _MLCAnyDecRef, symObjAddr: 0x7988, symBinAddr: 0xB01C, symSize: 0x318 }
  - { offsetInCU: 0xA1832, offset: 0xA1832, size: 0x8, addend: 0x0, symName: _MLCAnyInplaceViewToOwned, symObjAddr: 0x7CC8, symBinAddr: 0xB35C, symSize: 0x374 }
  - { offsetInCU: 0xA1FF1, offset: 0xA1FF1, size: 0x8, addend: 0x0, symName: _MLCFuncSetGlobal, symObjAddr: 0x803C, symBinAddr: 0xB6D0, symSize: 0x36C }
  - { offsetInCU: 0xA268B, offset: 0xA268B, size: 0x8, addend: 0x0, symName: __ZN3mlc8registry9TypeTable7SetFuncEPKcNS_7AnyViewEb, symObjAddr: 0x83A8, symBinAddr: 0xBA3C, symSize: 0x3E8 }
  - { offsetInCU: 0xA3487, offset: 0xA3487, size: 0x8, addend: 0x0, symName: __ZNSt3__112__hash_tableINS_17__hash_value_typeINS_12basic_stringIcNS_11char_traitsIcEENS_9allocatorIcEEEEPN3mlc7FuncObjEEENS_22__unordered_map_hasherIS7_SB_NS_4hashIS7_EENS_8equal_toIS7_EELb1EEENS_21__unordered_map_equalIS7_SB_SG_SE_Lb1EEENS5_ISB_EEE25__emplace_unique_key_argsIS7_JRKNS_21piecewise_construct_tENS_5tupleIJOS7_EEENSQ_IJODnEEEEEENS_4pairINS_15__hash_iteratorIPNS_11__hash_nodeISB_PvEEEEbEERKT_DpOT0_, symObjAddr: 0x15380, symBinAddr: 0x18A14, symSize: 0x3A0 }
  - { offsetInCU: 0xA3D22, offset: 0xA3D22, size: 0x8, addend: 0x0, symName: _MLCFuncGetGlobal, symObjAddr: 0x8790, symBinAddr: 0xBE24, symSize: 0x430 }
  - { offsetInCU: 0xA4629, offset: 0xA4629, size: 0x8, addend: 0x0, symName: __ZN3mlc8registry9TypeTable7GetFuncEPKc, symObjAddr: 0x8BC0, symBinAddr: 0xC254, symSize: 0xFC }
  - { offsetInCU: 0xA4C8A, offset: 0xA4C8A, size: 0x8, addend: 0x0, symName: __ZNSt3__112__hash_tableINS_17__hash_value_typeINS_12basic_stringIcNS_11char_traitsIcEENS_9allocatorIcEEEEPN3mlc7FuncObjEEENS_22__unordered_map_hasherIS7_SB_NS_4hashIS7_EENS_8equal_toIS7_EELb1EEENS_21__unordered_map_equalIS7_SB_SG_SE_Lb1EEENS5_ISB_EEE4findIS7_EENS_15__hash_iteratorIPNS_11__hash_nodeISB_PvEEEERKT_, symObjAddr: 0x158C8, symBinAddr: 0x18F5C, symSize: 0x184 }
  - { offsetInCU: 0xA4F6B, offset: 0xA4F6B, size: 0x8, addend: 0x0, symName: _MLCFuncSafeCall, symObjAddr: 0x8CBC, symBinAddr: 0xC350, symSize: 0xF0 }
  - { offsetInCU: 0xA51A1, offset: 0xA51A1, size: 0x8, addend: 0x0, symName: _MLCFuncCreate, symObjAddr: 0x8E70, symBinAddr: 0xC504, symSize: 0x430 }
  - { offsetInCU: 0xA61A8, offset: 0xA61A8, size: 0x8, addend: 0x0, symName: __ZZN3mlc7FuncObj11FromForeignEPvPFvS1_EPFiPKviPK6MLCAnyPS6_EENUliS8_S9_E0_D1Ev, symObjAddr: 0x15A4C, symBinAddr: 0x190E0, symSize: 0x50 }
  - { offsetInCU: 0xA651D, offset: 0xA651D, size: 0x8, addend: 0x0, symName: _MLCErrorCreate, symObjAddr: 0x93E4, symBinAddr: 0xCA78, symSize: 0x3C0 }
  - { offsetInCU: 0xA7039, offset: 0xA7039, size: 0x8, addend: 0x0, symName: __ZZN3mlc4base7PtrBase5_InitINS_8ErrorObjEEEvRK6MLCAnyENKUlvE_clEv, symObjAddr: 0xBEFC, symBinAddr: 0xF590, symSize: 0x270 }
  - { offsetInCU: 0xA76A7, offset: 0xA76A7, size: 0x8, addend: 0x0, symName: __ZNK3mlc8ErrorObj7GetInfoEPNSt3__16vectorIPKcNS1_9allocatorIS4_EEEE, symObjAddr: 0x9BEC, symBinAddr: 0xD280, symSize: 0x114 }
  - { offsetInCU: 0xA7BA0, offset: 0xA7BA0, size: 0x8, addend: 0x0, symName: _MLCExtObjCreate, symObjAddr: 0x9D00, symBinAddr: 0xD394, symSize: 0x50 }
  - { offsetInCU: 0xA7C81, offset: 0xA7C81, size: 0x8, addend: 0x0, symName: __ZNSt3__16vectorIPKcNS_9allocatorIS2_EEED1B8ue170006Ev, symObjAddr: 0x9BBC, symBinAddr: 0xD250, symSize: 0x30 }
  - { offsetInCU: 0xA812E, offset: 0xA812E, size: 0x8, addend: 0x0, symName: __ZNKSt3__16vectorIPKcNS_9allocatorIS2_EEE20__throw_length_errorB8ue170006Ev, symObjAddr: 0x16130, symBinAddr: 0x197C4, symSize: 0x14 }
  - { offsetInCU: 0xA8157, offset: 0xA8157, size: 0x8, addend: 0x0, symName: __ZNSt3__112__hash_tableINS_17__hash_value_typeINS_12basic_stringIcNS_11char_traitsIcEENS_9allocatorIcEEEE12DLDeviceTypeEENS_22__unordered_map_hasherIS7_S9_NS_4hashIS7_EENS_8equal_toIS7_EELb1EEENS_21__unordered_map_equalIS7_S9_SE_SC_Lb1EEENS5_IS9_EEE25__emplace_unique_key_argsIS7_JRKNS_4pairIKS7_S8_EEEEENSL_INS_15__hash_iteratorIPNS_11__hash_nodeIS9_PvEEEEbEERKT_DpOT0_, symObjAddr: 0x16144, symBinAddr: 0x197D8, symSize: 0x380 }
  - { offsetInCU: 0xA8162, offset: 0xA8162, size: 0x8, addend: 0x0, symName: _MLCExtObjCreate, symObjAddr: 0x9D00, symBinAddr: 0xD394, symSize: 0x50 }
  - { offsetInCU: 0xA81B9, offset: 0xA81B9, size: 0x8, addend: 0x0, symName: _MLCExtObjDelete, symObjAddr: 0x9D50, symBinAddr: 0xD3E4, symSize: 0x110 }
  - { offsetInCU: 0xA833C, offset: 0xA833C, size: 0x8, addend: 0x0, symName: _MLCExtObjDelete.cold.1, symObjAddr: 0x275E8, symBinAddr: 0x51648, symSize: 0x34 }
  - { offsetInCU: 0xA8371, offset: 0xA8371, size: 0x8, addend: 0x0, symName: __ZNSt12length_errorC1B8ue170006EPKc, symObjAddr: 0x9EC4, symBinAddr: 0xD558, symSize: 0x24 }
  - { offsetInCU: 0xA874E, offset: 0xA874E, size: 0x8, addend: 0x0, symName: __ZNSt3__119basic_ostringstreamIcNS_11char_traitsIcEENS_9allocatorIcEEED0Ev, symObjAddr: 0xA21C, symBinAddr: 0xD8B0, symSize: 0x8C }
  - { offsetInCU: 0xA88FB, offset: 0xA88FB, size: 0x8, addend: 0x0, symName: __ZTv0_n24_NSt3__119basic_ostringstreamIcNS_11char_traitsIcEENS_9allocatorIcEEED1Ev, symObjAddr: 0xA2A8, symBinAddr: 0xD93C, symSize: 0x8C }
  - { offsetInCU: 0xA8ABB, offset: 0xA8ABB, size: 0x8, addend: 0x0, symName: __ZTv0_n24_NSt3__119basic_ostringstreamIcNS_11char_traitsIcEENS_9allocatorIcEEED0Ev, symObjAddr: 0xA334, symBinAddr: 0xD9C8, symSize: 0x94 }
  - { offsetInCU: 0xA8C7B, offset: 0xA8C7B, size: 0x8, addend: 0x0, symName: __ZNSt3__115basic_stringbufIcNS_11char_traitsIcEENS_9allocatorIcEEED1Ev, symObjAddr: 0xA3C8, symBinAddr: 0xDA5C, symSize: 0x40 }
  - { offsetInCU: 0xA8DE4, offset: 0xA8DE4, size: 0x8, addend: 0x0, symName: __ZNSt3__115basic_stringbufIcNS_11char_traitsIcEENS_9allocatorIcEEED0Ev, symObjAddr: 0xA408, symBinAddr: 0xDA9C, symSize: 0x44 }
  - { offsetInCU: 0xA903E, offset: 0xA903E, size: 0x8, addend: 0x0, symName: __ZNSt3__115basic_stringbufIcNS_11char_traitsIcEENS_9allocatorIcEEE7seekoffExNS_8ios_base7seekdirEj, symObjAddr: 0xA44C, symBinAddr: 0xDAE0, symSize: 0x100 }
  - { offsetInCU: 0xA923E, offset: 0xA923E, size: 0x8, addend: 0x0, symName: __ZNSt3__115basic_stringbufIcNS_11char_traitsIcEENS_9allocatorIcEEE7seekposENS_4fposI11__mbstate_tEEj, symObjAddr: 0xA54C, symBinAddr: 0xDBE0, symSize: 0x18 }
  - { offsetInCU: 0xA92DC, offset: 0xA92DC, size: 0x8, addend: 0x0, symName: __ZNSt3__115basic_stringbufIcNS_11char_traitsIcEENS_9allocatorIcEEE9underflowEv, symObjAddr: 0xA564, symBinAddr: 0xDBF8, symSize: 0x50 }
  - { offsetInCU: 0xA9380, offset: 0xA9380, size: 0x8, addend: 0x0, symName: __ZNSt3__115basic_stringbufIcNS_11char_traitsIcEENS_9allocatorIcEEE9pbackfailEi, symObjAddr: 0xA5B4, symBinAddr: 0xDC48, symSize: 0x6C }
  - { offsetInCU: 0xA9551, offset: 0xA9551, size: 0x8, addend: 0x0, symName: __ZNSt3__115basic_stringbufIcNS_11char_traitsIcEENS_9allocatorIcEEE8overflowEi, symObjAddr: 0xA620, symBinAddr: 0xDCB4, symSize: 0x164 }
  - { offsetInCU: 0xA9F29, offset: 0xA9F29, size: 0x8, addend: 0x0, symName: __ZZN3mlc4base7PtrBase5_InitINS_6StrObjEEEvRK6MLCAnyENKUlvE_clEv, symObjAddr: 0xBAF8, symBinAddr: 0xF18C, symSize: 0x2DC }
  - { offsetInCU: 0xAA669, offset: 0xAA669, size: 0x8, addend: 0x0, symName: __ZNK3mlc8ErrorObj10AppendWithE12MLCByteArray, symObjAddr: 0xB9FC, symBinAddr: 0xF090, symSize: 0xFC }
  - { offsetInCU: 0xAA8AB, offset: 0xAA8AB, size: 0x8, addend: 0x0, symName: __ZN3mlc4base12ErrorBuilderD2Ev, symObjAddr: 0xB504, symBinAddr: 0xEB98, symSize: 0xDC }
  - { offsetInCU: 0xAADB3, offset: 0xAADB3, size: 0x8, addend: 0x0, symName: __ZN3mlc9ExceptionD1Ev, symObjAddr: 0xB708, symBinAddr: 0xED9C, symSize: 0x5C }
  - { offsetInCU: 0xAAEAF, offset: 0xAAEAF, size: 0x8, addend: 0x0, symName: __ZN3mlc22DefaultObjectAllocatorINS_8ErrorObjEE12DeleterArrayEPv, symObjAddr: 0xB764, symBinAddr: 0xEDF8, symSize: 0xC }
  - { offsetInCU: 0xAAEFA, offset: 0xAAEFA, size: 0x8, addend: 0x0, symName: __ZN3mlc9ExceptionD0Ev, symObjAddr: 0xB770, symBinAddr: 0xEE04, symSize: 0x60 }
  - { offsetInCU: 0xAB00F, offset: 0xAB00F, size: 0x8, addend: 0x0, symName: __ZNK3mlc9Exception4whatEv, symObjAddr: 0xB7D0, symBinAddr: 0xEE64, symSize: 0x1C }
  - { offsetInCU: 0xAB03A, offset: 0xAB03A, size: 0x8, addend: 0x0, symName: __ZNK3mlc9Exception4whatEv, symObjAddr: 0xB7D0, symBinAddr: 0xEE64, symSize: 0x1C }
  - { offsetInCU: 0xAB056, offset: 0xAB056, size: 0x8, addend: 0x0, symName: __ZN3mlc7FuncObj12SafeCallImplEPKS0_iPKNS_7AnyViewEPNS_3AnyE, symObjAddr: 0xB7EC, symBinAddr: 0xEE80, symSize: 0x210 }
  - { offsetInCU: 0xAB64D, offset: 0xAB64D, size: 0x8, addend: 0x0, symName: __ZN3mlc4base8Type2StrIPNS_6StrObjEE3RunEv, symObjAddr: 0xBDF0, symBinAddr: 0xF484, symSize: 0xE8 }
  - { offsetInCU: 0xABD28, offset: 0xABD28, size: 0x8, addend: 0x0, symName: __ZN3mlc22DefaultObjectAllocatorINS_4core6StrPadEE12DeleterArrayEPv, symObjAddr: 0xBED8, symBinAddr: 0xF56C, symSize: 0xC }
  - { offsetInCU: 0xABD73, offset: 0xABD73, size: 0x8, addend: 0x0, symName: __ZN3mlc4base18TemporaryTypeErrorD1Ev, symObjAddr: 0xBEE4, symBinAddr: 0xF578, symSize: 0x4 }
  - { offsetInCU: 0xABD95, offset: 0xABD95, size: 0x8, addend: 0x0, symName: __ZN3mlc4base18TemporaryTypeErrorD1Ev, symObjAddr: 0xBEE4, symBinAddr: 0xF578, symSize: 0x4 }
  - { offsetInCU: 0xABDCB, offset: 0xABDCB, size: 0x8, addend: 0x0, symName: __ZN3mlc4base18TemporaryTypeErrorD0Ev, symObjAddr: 0xBEE8, symBinAddr: 0xF57C, symSize: 0x14 }
  - { offsetInCU: 0xABE2E, offset: 0xABE2E, size: 0x8, addend: 0x0, symName: __ZN3mlc4base8Type2StrIPNS_8ErrorObjEE3RunEv, symObjAddr: 0xC16C, symBinAddr: 0xF800, symSize: 0xEC }
  - { offsetInCU: 0xAC509, offset: 0xAC509, size: 0x8, addend: 0x0, symName: __ZN3mlc4core16ReflectionHelper13PrepareMethodIPFNSt3__112basic_stringIcNS3_11char_traitsIcEENS3_9allocatorIcEEEENS_7AnyViewEEEE13MLCTypeMethodPKcOT_, symObjAddr: 0xC3AC, symBinAddr: 0xFA40, symSize: 0x194 }
  - { offsetInCU: 0xACE85, offset: 0xACE85, size: 0x8, addend: 0x0, symName: __ZN3mlc4core8Func2StrINSt3__112basic_stringIcNS2_11char_traitsIcEENS2_9allocatorIcEEEEJNS_7AnyViewEEE3RunIJLm0EEEES8_NS2_16integer_sequenceImJXspT_EEEE, symObjAddr: 0xC76C, symBinAddr: 0xFE00, symSize: 0x1CC }
  - { offsetInCU: 0xAD623, offset: 0xAD623, size: 0x8, addend: 0x0, symName: __ZN3mlc22DefaultObjectAllocatorINS_4core8FuncImplIPFNSt3__112basic_stringIcNS3_11char_traitsIcEENS3_9allocatorIcEEEENS_7AnyViewEEEEE7DeleterEPv, symObjAddr: 0xC760, symBinAddr: 0xFDF4, symSize: 0xC }
  - { offsetInCU: 0xAD659, offset: 0xAD659, size: 0x8, addend: 0x0, symName: __ZN3mlc4core8Func2StrINSt3__112basic_stringIcNS2_11char_traitsIcEENS2_9allocatorIcEEEEJNS_7AnyViewEEE5ApplyILm0EEEvRNS2_13basic_ostreamIcS5_EE, symObjAddr: 0xC938, symBinAddr: 0xFFCC, symSize: 0x94 }
  - { offsetInCU: 0xADDCF, offset: 0xADDCF, size: 0x8, addend: 0x0, symName: __ZNKSt3__16vectorIN3mlc3AnyENS_9allocatorIS2_EEE20__throw_length_errorB8ue170006Ev, symObjAddr: 0xCB48, symBinAddr: 0x101DC, symSize: 0x14 }
  - { offsetInCU: 0xADDF8, offset: 0xADDF8, size: 0x8, addend: 0x0, symName: __ZNKSt3__16vectorI13MLCTypeMethodNS_9allocatorIS1_EEE20__throw_length_errorB8ue170006Ev, symObjAddr: 0xCB5C, symBinAddr: 0x101F0, symSize: 0x14 }
  - { offsetInCU: 0xADE03, offset: 0xADE03, size: 0x8, addend: 0x0, symName: __ZN3mlc8registry15PODGetterSetterIDnE6SetterEP12MLCTypeFieldPvP6MLCAny, symObjAddr: 0xCB94, symBinAddr: 0x10228, symSize: 0xC }
  - { offsetInCU: 0xADE67, offset: 0xADE67, size: 0x8, addend: 0x0, symName: __ZN3mlc8registry15PODGetterSetterIDnE6GetterEP12MLCTypeFieldPvP6MLCAny, symObjAddr: 0xCBA0, symBinAddr: 0x10234, symSize: 0x50 }
  - { offsetInCU: 0xADFA5, offset: 0xADFA5, size: 0x8, addend: 0x0, symName: __ZN3mlc8registry15PODGetterSetterIxE6SetterEP12MLCTypeFieldPvP6MLCAny, symObjAddr: 0xCBF0, symBinAddr: 0x10284, symSize: 0x250 }
  - { offsetInCU: 0xAE6E9, offset: 0xAE6E9, size: 0x8, addend: 0x0, symName: __ZN3mlc8registry15PODGetterSetterIxE6GetterEP12MLCTypeFieldPvP6MLCAny, symObjAddr: 0xCE40, symBinAddr: 0x104D4, symSize: 0x18 }
  - { offsetInCU: 0xAE77E, offset: 0xAE77E, size: 0x8, addend: 0x0, symName: __ZN3mlc8registry15PODGetterSetterIdE6SetterEP12MLCTypeFieldPvP6MLCAny, symObjAddr: 0xCE58, symBinAddr: 0x104EC, symSize: 0x264 }
  - { offsetInCU: 0xAEEC2, offset: 0xAEEC2, size: 0x8, addend: 0x0, symName: __ZN3mlc8registry15PODGetterSetterIdE6GetterEP12MLCTypeFieldPvP6MLCAny, symObjAddr: 0xD0BC, symBinAddr: 0x10750, symSize: 0x18 }
  - { offsetInCU: 0xAEF58, offset: 0xAEF58, size: 0x8, addend: 0x0, symName: __ZN3mlc8registry15PODGetterSetterIPvE6SetterEP12MLCTypeFieldS2_P6MLCAny, symObjAddr: 0xD0D4, symBinAddr: 0x10768, symSize: 0x264 }
  - { offsetInCU: 0xAF69C, offset: 0xAF69C, size: 0x8, addend: 0x0, symName: __ZN3mlc8registry15PODGetterSetterIPvE6GetterEP12MLCTypeFieldS2_P6MLCAny, symObjAddr: 0xD338, symBinAddr: 0x109CC, symSize: 0x20 }
  - { offsetInCU: 0xAF731, offset: 0xAF731, size: 0x8, addend: 0x0, symName: __ZN3mlc8registry15PODGetterSetterI8DLDeviceE6SetterEP12MLCTypeFieldPvP6MLCAny, symObjAddr: 0xD358, symBinAddr: 0x109EC, symSize: 0x3A4 }
  - { offsetInCU: 0xB0592, offset: 0xB0592, size: 0x8, addend: 0x0, symName: __ZN3mlc8registry15PODGetterSetterI8DLDeviceE6GetterEP12MLCTypeFieldPvP6MLCAny, symObjAddr: 0xD6FC, symBinAddr: 0x10D90, symSize: 0x18 }
  - { offsetInCU: 0xB0627, offset: 0xB0627, size: 0x8, addend: 0x0, symName: __ZN3mlc8registry15PODGetterSetterI10DLDataTypeE6SetterEP12MLCTypeFieldPvP6MLCAny, symObjAddr: 0xD714, symBinAddr: 0x10DA8, symSize: 0x3A4 }
  - { offsetInCU: 0xB1488, offset: 0xB1488, size: 0x8, addend: 0x0, symName: __ZN3mlc8registry15PODGetterSetterI10DLDataTypeE6GetterEP12MLCTypeFieldPvP6MLCAny, symObjAddr: 0xDAB8, symBinAddr: 0x1114C, symSize: 0x18 }
  - { offsetInCU: 0xB14EC, offset: 0xB14EC, size: 0x8, addend: 0x0, symName: __ZN3mlc8registry15PODGetterSetterIPKcE6SetterEP12MLCTypeFieldPvP6MLCAny, symObjAddr: 0xDAD0, symBinAddr: 0x11164, symSize: 0x268 }
  - { offsetInCU: 0xB1C30, offset: 0xB1C30, size: 0x8, addend: 0x0, symName: __ZN3mlc8registry15PODGetterSetterIPKcE6GetterEP12MLCTypeFieldPvP6MLCAny, symObjAddr: 0xDD38, symBinAddr: 0x113CC, symSize: 0x18 }
  - { offsetInCU: 0xB225E, offset: 0xB225E, size: 0x8, addend: 0x0, symName: __ZNKSt3__16vectorINS_10unique_ptrIN3mlc8registry15TypeInfoWrapperENS_14default_deleteIS4_EEEENS_9allocatorIS7_EEE20__throw_length_errorB8ue170006Ev, symObjAddr: 0xDEB8, symBinAddr: 0x1154C, symSize: 0x14 }
  - { offsetInCU: 0xB2287, offset: 0xB2287, size: 0x8, addend: 0x0, symName: __ZNSt3__110unique_ptrIN3mlc8registry15TypeInfoWrapperENS_14default_deleteIS3_EEED1B8ue170006Ev, symObjAddr: 0xDECC, symBinAddr: 0x11560, symSize: 0x40 }
  - { offsetInCU: 0xB23DE, offset: 0xB23DE, size: 0x8, addend: 0x0, symName: __ZNSt3__112__hash_tableINS_17__hash_value_typeIPKvNS_10unique_ptrIvPFvPvEEEEENS_22__unordered_map_hasherIS3_S9_NS_4hashIS3_EENS_8equal_toIS3_EELb1EEENS_21__unordered_map_equalIS3_S9_SE_SC_Lb1EEENS_9allocatorIS9_EEE14__erase_uniqueIS3_EEmRKT_, symObjAddr: 0xE088, symBinAddr: 0x1171C, symSize: 0x148 }
  - { offsetInCU: 0xB27CE, offset: 0xB27CE, size: 0x8, addend: 0x0, symName: __ZNSt3__112__hash_tableINS_17__hash_value_typeIPKvNS_10unique_ptrI6MLCAnyPFvPS5_EEEEENS_22__unordered_map_hasherIS3_SA_NS_4hashIS3_EENS_8equal_toIS3_EELb1EEENS_21__unordered_map_equalIS3_SA_SF_SD_Lb1EEENS_9allocatorISA_EEE14__erase_uniqueIS3_EEmRKT_, symObjAddr: 0xE7E8, symBinAddr: 0x11E7C, symSize: 0x148 }
  - { offsetInCU: 0xB2E82, offset: 0xB2E82, size: 0x8, addend: 0x0, symName: __ZNSt3__112__hash_tableINS_17__hash_value_typeIPKvNS_10unique_ptrIvPFvPvEEEEENS_22__unordered_map_hasherIS3_S9_NS_4hashIS3_EENS_8equal_toIS3_EELb1EEENS_21__unordered_map_equalIS3_S9_SE_SC_Lb1EEENS_9allocatorIS9_EEE6removeENS_21__hash_const_iteratorIPNS_11__hash_nodeIS9_S5_EEEE, symObjAddr: 0xE660, symBinAddr: 0x11CF4, symSize: 0x134 }
  - { offsetInCU: 0xB2EF9, offset: 0xB2EF9, size: 0x8, addend: 0x0, symName: __ZNSt3__112__hash_tableINS_17__hash_value_typeIPKvNS_10unique_ptrIvPFvPvEEEEENS_22__unordered_map_hasherIS3_S9_NS_4hashIS3_EENS_8equal_toIS3_EELb1EEENS_21__unordered_map_equalIS3_S9_SE_SC_Lb1EEENS_9allocatorIS9_EEE6removeENS_21__hash_const_iteratorIPNS_11__hash_nodeIS9_S5_EEEE, symObjAddr: 0xE660, symBinAddr: 0x11CF4, symSize: 0x134 }
  - { offsetInCU: 0xB2F15, offset: 0xB2F15, size: 0x8, addend: 0x0, symName: __ZNSt3__112__hash_tableINS_17__hash_value_typeIPKvNS_10unique_ptrIvPFvPvEEEEENS_22__unordered_map_hasherIS3_S9_NS_4hashIS3_EENS_8equal_toIS3_EELb1EEENS_21__unordered_map_equalIS3_S9_SE_SC_Lb1EEENS_9allocatorIS9_EEE6removeENS_21__hash_const_iteratorIPNS_11__hash_nodeIS9_S5_EEEE, symObjAddr: 0xE660, symBinAddr: 0x11CF4, symSize: 0x134 }
  - { offsetInCU: 0xB33BD, offset: 0xB33BD, size: 0x8, addend: 0x0, symName: __ZNKSt3__121__murmur2_or_cityhashImLm64EEclB8ue170006EPKvm, symObjAddr: 0xE1D0, symBinAddr: 0x11864, symSize: 0x490 }
  - { offsetInCU: 0xB3E31, offset: 0xB3E31, size: 0x8, addend: 0x0, symName: __ZNSt3__110unique_ptrINS_11__hash_nodeINS_17__hash_value_typeIPKvNS0_IvPFvPvEEEEES5_EENS_22__hash_node_destructorINS_9allocatorISA_EEEEED1B8ue170006Ev, symObjAddr: 0xE794, symBinAddr: 0x11E28, symSize: 0x54 }
  - { offsetInCU: 0xB4308, offset: 0xB4308, size: 0x8, addend: 0x0, symName: __ZNSt3__112__hash_tableINS_17__hash_value_typeIPKvNS_10unique_ptrI6MLCAnyPFvPS5_EEEEENS_22__unordered_map_hasherIS3_SA_NS_4hashIS3_EENS_8equal_toIS3_EELb1EEENS_21__unordered_map_equalIS3_SA_SF_SD_Lb1EEENS_9allocatorISA_EEE6removeENS_21__hash_const_iteratorIPNS_11__hash_nodeISA_PvEEEE, symObjAddr: 0xE930, symBinAddr: 0x11FC4, symSize: 0x134 }
  - { offsetInCU: 0xB437F, offset: 0xB437F, size: 0x8, addend: 0x0, symName: __ZNSt3__112__hash_tableINS_17__hash_value_typeIPKvNS_10unique_ptrI6MLCAnyPFvPS5_EEEEENS_22__unordered_map_hasherIS3_SA_NS_4hashIS3_EENS_8equal_toIS3_EELb1EEENS_21__unordered_map_equalIS3_SA_SF_SD_Lb1EEENS_9allocatorISA_EEE6removeENS_21__hash_const_iteratorIPNS_11__hash_nodeISA_PvEEEE, symObjAddr: 0xE930, symBinAddr: 0x11FC4, symSize: 0x134 }
  - { offsetInCU: 0xB439B, offset: 0xB439B, size: 0x8, addend: 0x0, symName: __ZNSt3__112__hash_tableINS_17__hash_value_typeIPKvNS_10unique_ptrI6MLCAnyPFvPS5_EEEEENS_22__unordered_map_hasherIS3_SA_NS_4hashIS3_EENS_8equal_toIS3_EELb1EEENS_21__unordered_map_equalIS3_SA_SF_SD_Lb1EEENS_9allocatorISA_EEE6removeENS_21__hash_const_iteratorIPNS_11__hash_nodeISA_PvEEEE, symObjAddr: 0xE930, symBinAddr: 0x11FC4, symSize: 0x134 }
  - { offsetInCU: 0xB4736, offset: 0xB4736, size: 0x8, addend: 0x0, symName: __ZNSt3__110unique_ptrINS_11__hash_nodeINS_17__hash_value_typeIPKvNS0_I6MLCAnyPFvPS5_EEEEEPvEENS_22__hash_node_destructorINS_9allocatorISC_EEEEED1B8ue170006Ev, symObjAddr: 0xEA64, symBinAddr: 0x120F8, symSize: 0x54 }
  - { offsetInCU: 0xB4A4F, offset: 0xB4A4F, size: 0x8, addend: 0x0, symName: __ZNSt3__112__hash_tableINS_17__hash_value_typeIPKvNS_10unique_ptrI6MLCAnyPFvPS5_EEEEENS_22__unordered_map_hasherIS3_SA_NS_4hashIS3_EENS_8equal_toIS3_EELb1EEENS_21__unordered_map_equalIS3_SA_SF_SD_Lb1EEENS_9allocatorISA_EEE20__node_insert_uniqueEPNS_11__hash_nodeISA_PvEE, symObjAddr: 0xEAB8, symBinAddr: 0x1214C, symSize: 0x134 }
  - { offsetInCU: 0xB4D2F, offset: 0xB4D2F, size: 0x8, addend: 0x0, symName: __ZNSt3__112__hash_tableINS_17__hash_value_typeIPKvNS_10unique_ptrI6MLCAnyPFvPS5_EEEEENS_22__unordered_map_hasherIS3_SA_NS_4hashIS3_EENS_8equal_toIS3_EELb1EEENS_21__unordered_map_equalIS3_SA_SF_SD_Lb1EEENS_9allocatorISA_EEE28__node_insert_unique_prepareB8ue170006EmRSA_, symObjAddr: 0xEBEC, symBinAddr: 0x12280, symSize: 0x1C8 }
  - { offsetInCU: 0xB504A, offset: 0xB504A, size: 0x8, addend: 0x0, symName: __ZNSt3__112__hash_tableINS_17__hash_value_typeIPKvNS_10unique_ptrI6MLCAnyPFvPS5_EEEEENS_22__unordered_map_hasherIS3_SA_NS_4hashIS3_EENS_8equal_toIS3_EELb1EEENS_21__unordered_map_equalIS3_SA_SF_SD_Lb1EEENS_9allocatorISA_EEE11__do_rehashILb1EEEvm, symObjAddr: 0xEDB4, symBinAddr: 0x12448, symSize: 0x15C }
  - { offsetInCU: 0xB54C0, offset: 0xB54C0, size: 0x8, addend: 0x0, symName: __ZNSt3__112__hash_tableINS_17__hash_value_typeINS_12basic_stringIcNS_11char_traitsIcEENS_9allocatorIcEEEEP11MLCTypeInfoEENS_22__unordered_map_hasherIS7_SA_NS_4hashIS7_EENS_8equal_toIS7_EELb1EEENS_21__unordered_map_equalIS7_SA_SF_SD_Lb1EEENS5_ISA_EEE16__reserve_uniqueB8ue170006Em, symObjAddr: 0xEF10, symBinAddr: 0x125A4, symSize: 0xE8 }
  - { offsetInCU: 0xB5668, offset: 0xB5668, size: 0x8, addend: 0x0, symName: __ZNSt3__112__hash_tableINS_17__hash_value_typeINS_12basic_stringIcNS_11char_traitsIcEENS_9allocatorIcEEEEP11MLCTypeInfoEENS_22__unordered_map_hasherIS7_SA_NS_4hashIS7_EENS_8equal_toIS7_EELb1EEENS_21__unordered_map_equalIS7_SA_SF_SD_Lb1EEENS5_ISA_EEE11__do_rehashILb1EEEvm, symObjAddr: 0xEFF8, symBinAddr: 0x1268C, symSize: 0x15C }
  - { offsetInCU: 0xB5ADE, offset: 0xB5ADE, size: 0x8, addend: 0x0, symName: __ZN3mlc4base14MLCCreateErrorEPKcRKNSt3__112basic_stringIcNS3_11char_traitsIcEENS3_9allocatorIcEEEE12MLCByteArray, symObjAddr: 0xF154, symBinAddr: 0x127E8, symSize: 0x10C }
  - { offsetInCU: 0xB5DD9, offset: 0xB5DD9, size: 0x8, addend: 0x0, symName: __ZNSt3__112__hash_tableINS_17__hash_value_typeINS_12basic_stringIcNS_11char_traitsIcEENS_9allocatorIcEEEE12DLDeviceTypeEENS_22__unordered_map_hasherIS7_S9_NS_4hashIS7_EENS_8equal_toIS7_EELb1EEENS_21__unordered_map_equalIS7_S9_SE_SC_Lb1EEENS5_IS9_EEE4findIS7_EENS_15__hash_iteratorIPNS_11__hash_nodeIS9_PvEEEERKT_, symObjAddr: 0xF5C0, symBinAddr: 0x12C54, symSize: 0x184 }
  - { offsetInCU: 0xB60F1, offset: 0xB60F1, size: 0x8, addend: 0x0, symName: __ZNSt12out_of_rangeC1B8ue170006EPKc, symObjAddr: 0xF744, symBinAddr: 0x12DD8, symSize: 0x24 }
  - { offsetInCU: 0xB63F4, offset: 0xB63F4, size: 0x8, addend: 0x0, symName: __ZNSt3__112__hash_tableINS_17__hash_value_typeINS_12basic_stringIcNS_11char_traitsIcEENS_9allocatorIcEEEE10DLDataTypeEENS_22__unordered_map_hasherIS7_S9_NS_4hashIS7_EENS_8equal_toIS7_EELb1EEENS_21__unordered_map_equalIS7_S9_SE_SC_Lb1EEENS5_IS9_EEE4findIS7_EENS_15__hash_iteratorIPNS_11__hash_nodeIS9_PvEEEERKT_, symObjAddr: 0xFE8C, symBinAddr: 0x13520, symSize: 0x184 }
  - { offsetInCU: 0xB6981, offset: 0xB6981, size: 0x8, addend: 0x0, symName: __ZNSt3__112__hash_tableINS_17__hash_value_typeIPKvNS_10unique_ptrIvPFvPvEEEEENS_22__unordered_map_hasherIS3_S9_NS_4hashIS3_EENS_8equal_toIS3_EELb1EEENS_21__unordered_map_equalIS3_S9_SE_SC_Lb1EEENS_9allocatorIS9_EEE21__emplace_unique_implIJRPiS8_EEENS_4pairINS_15__hash_iteratorIPNS_11__hash_nodeIS9_S5_EEEEbEEDpOT_, symObjAddr: 0x112C0, symBinAddr: 0x14954, symSize: 0xFC }
  - { offsetInCU: 0xB747F, offset: 0xB747F, size: 0x8, addend: 0x0, symName: __ZNSt3__110unique_ptrINS_11__hash_nodeINS_17__hash_value_typeINS_12basic_stringIcNS_11char_traitsIcEENS_9allocatorIcEEEEP11MLCTypeInfoEEPvEENS_22__hash_node_destructorINS6_ISD_EEEEED1B8ue170006Ev, symObjAddr: 0x10C54, symBinAddr: 0x142E8, symSize: 0x4C }
  - { offsetInCU: 0xB78F9, offset: 0xB78F9, size: 0x8, addend: 0x0, symName: __ZNSt3__112__hash_tableINS_17__hash_value_typeIPKvNS_10unique_ptrIvPFvPvEEEEENS_22__unordered_map_hasherIS3_S9_NS_4hashIS3_EENS_8equal_toIS3_EELb1EEENS_21__unordered_map_equalIS3_S9_SE_SC_Lb1EEENS_9allocatorIS9_EEE21__emplace_unique_implIJRPcS8_EEENS_4pairINS_15__hash_iteratorIPNS_11__hash_nodeIS9_S5_EEEEbEEDpOT_, symObjAddr: 0x10D6C, symBinAddr: 0x14400, symSize: 0xFC }
  - { offsetInCU: 0xB824C, offset: 0xB824C, size: 0x8, addend: 0x0, symName: __ZNSt3__112__hash_tableINS_17__hash_value_typeIPKvNS_10unique_ptrIvPFvPvEEEEENS_22__unordered_map_hasherIS3_S9_NS_4hashIS3_EENS_8equal_toIS3_EELb1EEENS_21__unordered_map_equalIS3_S9_SE_SC_Lb1EEENS_9allocatorIS9_EEE20__node_insert_uniqueEPNS_11__hash_nodeIS9_S5_EE, symObjAddr: 0x10E68, symBinAddr: 0x144FC, symSize: 0x134 }
  - { offsetInCU: 0xB8574, offset: 0xB8574, size: 0x8, addend: 0x0, symName: __ZNSt3__112__hash_tableINS_17__hash_value_typeIPKvNS_10unique_ptrIvPFvPvEEEEENS_22__unordered_map_hasherIS3_S9_NS_4hashIS3_EENS_8equal_toIS3_EELb1EEENS_21__unordered_map_equalIS3_S9_SE_SC_Lb1EEENS_9allocatorIS9_EEE28__node_insert_unique_prepareB8ue170006EmRS9_, symObjAddr: 0x10F9C, symBinAddr: 0x14630, symSize: 0x1C8 }
  - { offsetInCU: 0xB888F, offset: 0xB888F, size: 0x8, addend: 0x0, symName: __ZNSt3__112__hash_tableINS_17__hash_value_typeIPKvNS_10unique_ptrIvPFvPvEEEEENS_22__unordered_map_hasherIS3_S9_NS_4hashIS3_EENS_8equal_toIS3_EELb1EEENS_21__unordered_map_equalIS3_S9_SE_SC_Lb1EEENS_9allocatorIS9_EEE11__do_rehashILb1EEEvm, symObjAddr: 0x11164, symBinAddr: 0x147F8, symSize: 0x15C }
  - { offsetInCU: 0xB8D05, offset: 0xB8D05, size: 0x8, addend: 0x0, symName: __ZNSt3__112__hash_tableINS_17__hash_value_typeIPKvNS_10unique_ptrIvPFvPvEEEEENS_22__unordered_map_hasherIS3_S9_NS_4hashIS3_EENS_8equal_toIS3_EELb1EEENS_21__unordered_map_equalIS3_S9_SE_SC_Lb1EEENS_9allocatorIS9_EEE21__emplace_unique_implIJRPiS8_EEENS_4pairINS_15__hash_iteratorIPNS_11__hash_nodeIS9_S5_EEEEbEEDpOT_, symObjAddr: 0x112C0, symBinAddr: 0x14954, symSize: 0xFC }
  - { offsetInCU: 0xB9017, offset: 0xB9017, size: 0x8, addend: 0x0, symName: __ZN3mlc8registry9TypeTable8NewArrayI12MLCTypeFieldEEPT_x, symObjAddr: 0x11864, symBinAddr: 0x14EF8, symSize: 0xD0 }
  - { offsetInCU: 0xB92F8, offset: 0xB92F8, size: 0x8, addend: 0x0, symName: __ZN3mlc8registry9TypeTable8NewArrayIPvEEPT_x, symObjAddr: 0x11934, symBinAddr: 0x14FC8, symSize: 0xCC }
  - { offsetInCU: 0xB95DF, offset: 0xB95DF, size: 0x8, addend: 0x0, symName: __ZN3mlc8registry9TypeTable8NewArrayI13MLCTypeMethodEEPT_x, symObjAddr: 0x13334, symBinAddr: 0x169C8, symSize: 0xD0 }
  - { offsetInCU: 0xB993C, offset: 0xB993C, size: 0x8, addend: 0x0, symName: __ZNSt3__112__hash_tableINS_17__hash_value_typeIPKvNS_10unique_ptrIvPFvPvEEEEENS_22__unordered_map_hasherIS3_S9_NS_4hashIS3_EENS_8equal_toIS3_EELb1EEENS_21__unordered_map_equalIS3_S9_SE_SC_Lb1EEENS_9allocatorIS9_EEE21__emplace_unique_implIJRP12MLCTypeFieldS8_EEENS_4pairINS_15__hash_iteratorIPNS_11__hash_nodeIS9_S5_EEEEbEEDpOT_, symObjAddr: 0x11A00, symBinAddr: 0x15094, symSize: 0xFC }
  - { offsetInCU: 0xBA013, offset: 0xBA013, size: 0x8, addend: 0x0, symName: __ZNSt3__112__hash_tableINS_17__hash_value_typeIPKvNS_10unique_ptrIvPFvPvEEEEENS_22__unordered_map_hasherIS3_S9_NS_4hashIS3_EENS_8equal_toIS3_EELb1EEENS_21__unordered_map_equalIS3_S9_SE_SC_Lb1EEENS_9allocatorIS9_EEE21__emplace_unique_implIJRPS5_S8_EEENS_4pairINS_15__hash_iteratorIPNS_11__hash_nodeIS9_S5_EEEEbEEDpOT_, symObjAddr: 0x11AFC, symBinAddr: 0x15190, symSize: 0xFC }
  - { offsetInCU: 0xBAAC6, offset: 0xBAAC6, size: 0x8, addend: 0x0, symName: __ZNSt3__112__hash_tableINS_17__hash_value_typeIPKvNS_10unique_ptrIvPFvPvEEEEENS_22__unordered_map_hasherIS3_S9_NS_4hashIS3_EENS_8equal_toIS3_EELb1EEENS_21__unordered_map_equalIS3_S9_SE_SC_Lb1EEENS_9allocatorIS9_EEE21__emplace_unique_implIJRP13MLCTypeMethodS8_EEENS_4pairINS_15__hash_iteratorIPNS_11__hash_nodeIS9_S5_EEEEbEEDpOT_, symObjAddr: 0x13500, symBinAddr: 0x16B94, symSize: 0xFC }
  - { offsetInCU: 0xBB2ED, offset: 0xBB2ED, size: 0x8, addend: 0x0, symName: __ZNSt3__112__hash_tableINS_17__hash_value_typeIPKvNS_10unique_ptrI6MLCAnyPFvPS5_EEEEENS_22__unordered_map_hasherIS3_SA_NS_4hashIS3_EENS_8equal_toIS3_EELb1EEENS_21__unordered_map_equalIS3_SA_SF_SD_Lb1EEENS_9allocatorISA_EEE21__emplace_unique_implIJRPN3mlc7FuncObjES9_EEENS_4pairINS_15__hash_iteratorIPNS_11__hash_nodeISA_PvEEEEbEEDpOT_, symObjAddr: 0x13FA4, symBinAddr: 0x17638, symSize: 0xFC }
  - { offsetInCU: 0xBB942, offset: 0xBB942, size: 0x8, addend: 0x0, symName: __ZN3mlc8registry9TypeTable9NewObjPtrINS_7FuncObjEEEvPPT_S5_.cold.1, symObjAddr: 0x2761C, symBinAddr: 0x5167C, symSize: 0x30 }
  - { offsetInCU: 0xBC201, offset: 0xBC201, size: 0x8, addend: 0x0, symName: __ZNSt3__112__hash_tableINS_17__hash_value_typeINS_12basic_stringIcNS_11char_traitsIcEENS_9allocatorIcEEEENS_13unordered_mapIiPN3mlc7FuncObjENS_4hashIiEENS_8equal_toIiEENS5_INS_4pairIKiSB_EEEEEEEENS_22__unordered_map_hasherIS7_SL_NSC_IS7_EENSE_IS7_EELb1EEENS_21__unordered_map_equalIS7_SL_SO_SN_Lb1EEENS5_ISL_EEE11__do_rehashILb1EEEvm, symObjAddr: 0x13A28, symBinAddr: 0x170BC, symSize: 0x15C }
  - { offsetInCU: 0xBC677, offset: 0xBC677, size: 0x8, addend: 0x0, symName: __ZNSt3__112__hash_tableINS_17__hash_value_typeIiPN3mlc7FuncObjEEENS_22__unordered_map_hasherIiS5_NS_4hashIiEENS_8equal_toIiEELb1EEENS_21__unordered_map_equalIiS5_SA_S8_Lb1EEENS_9allocatorIS5_EEE25__emplace_unique_key_argsIiJRKNS_21piecewise_construct_tENS_5tupleIJRKiEEENSL_IJODnEEEEEENS_4pairINS_15__hash_iteratorIPNS_11__hash_nodeIS5_PvEEEEbEERKT_DpOT0_, symObjAddr: 0x13B84, symBinAddr: 0x17218, symSize: 0x2C4 }
  - { offsetInCU: 0xBC68C, offset: 0xBC68C, size: 0x8, addend: 0x0, symName: __ZNSt3__110unique_ptrINS_11__hash_nodeINS_17__hash_value_typeINS_12basic_stringIcNS_11char_traitsIcEENS_9allocatorIcEEEENS_13unordered_mapIiPN3mlc7FuncObjENS_4hashIiEENS_8equal_toIiEENS6_INS_4pairIKiSC_EEEEEEEEPvEENS_22__hash_node_destructorINS6_ISO_EEEEED1B8ue170006Ev, symObjAddr: 0x139AC, symBinAddr: 0x17040, symSize: 0x7C }
  - { offsetInCU: 0xBD442, offset: 0xBD442, size: 0x8, addend: 0x0, symName: __ZNSt3__112__hash_tableINS_17__hash_value_typeIiPN3mlc7FuncObjEEENS_22__unordered_map_hasherIiS5_NS_4hashIiEENS_8equal_toIiEELb1EEENS_21__unordered_map_equalIiS5_SA_S8_Lb1EEENS_9allocatorIS5_EEE11__do_rehashILb1EEEvm, symObjAddr: 0x13E48, symBinAddr: 0x174DC, symSize: 0x15C }
  - { offsetInCU: 0xBD8B8, offset: 0xBD8B8, size: 0x8, addend: 0x0, symName: __ZNSt3__112__hash_tableINS_17__hash_value_typeIPKvNS_10unique_ptrI6MLCAnyPFvPS5_EEEEENS_22__unordered_map_hasherIS3_SA_NS_4hashIS3_EENS_8equal_toIS3_EELb1EEENS_21__unordered_map_equalIS3_SA_SF_SD_Lb1EEENS_9allocatorISA_EEE21__emplace_unique_implIJRPN3mlc7FuncObjES9_EEENS_4pairINS_15__hash_iteratorIPNS_11__hash_nodeISA_PvEEEEbEEDpOT_, symObjAddr: 0x13FA4, symBinAddr: 0x17638, symSize: 0xFC }
  - { offsetInCU: 0xBE374, offset: 0xBE374, size: 0x8, addend: 0x0, symName: __ZNSt3__112__hash_tableINS_17__hash_value_typeINS_12basic_stringIcNS_11char_traitsIcEENS_9allocatorIcEEEENS_10unique_ptrIN3mlc8registry10DSOLibraryENS_14default_deleteISB_EEEEEENS_22__unordered_map_hasherIS7_SF_NS_4hashIS7_EENS_8equal_toIS7_EELb1EEENS_21__unordered_map_equalIS7_SF_SK_SI_Lb1EEENS5_ISF_EEED2Ev, symObjAddr: 0x15264, symBinAddr: 0x188F8, symSize: 0x8C }
  - { offsetInCU: 0xBE83D, offset: 0xBE83D, size: 0x8, addend: 0x0, symName: __ZNSt3__112__hash_tableINS_17__hash_value_typeINS_12basic_stringIcNS_11char_traitsIcEENS_9allocatorIcEEEENS_13unordered_mapIiPN3mlc7FuncObjENS_4hashIiEENS_8equal_toIiEENS5_INS_4pairIKiSB_EEEEEEEENS_22__unordered_map_hasherIS7_SL_NSC_IS7_EENSE_IS7_EELb1EEENS_21__unordered_map_equalIS7_SL_SO_SN_Lb1EEENS5_ISL_EEED2Ev, symObjAddr: 0x152F0, symBinAddr: 0x18984, symSize: 0x90 }
  - { offsetInCU: 0xBF838, offset: 0xBF838, size: 0x8, addend: 0x0, symName: __ZNSt3__112__hash_tableINS_17__hash_value_typeINS_12basic_stringIcNS_11char_traitsIcEENS_9allocatorIcEEEEPN3mlc7FuncObjEEENS_22__unordered_map_hasherIS7_SB_NS_4hashIS7_EENS_8equal_toIS7_EELb1EEENS_21__unordered_map_equalIS7_SB_SG_SE_Lb1EEENS5_ISB_EEE11__do_rehashILb1EEEvm, symObjAddr: 0x1576C, symBinAddr: 0x18E00, symSize: 0x15C }
  - { offsetInCU: 0xBFCAE, offset: 0xBFCAE, size: 0x8, addend: 0x0, symName: __ZNSt3__112__hash_tableINS_17__hash_value_typeINS_12basic_stringIcNS_11char_traitsIcEENS_9allocatorIcEEEEPN3mlc7FuncObjEEENS_22__unordered_map_hasherIS7_SB_NS_4hashIS7_EENS_8equal_toIS7_EELb1EEENS_21__unordered_map_equalIS7_SB_SG_SE_Lb1EEENS5_ISB_EEE4findIS7_EENS_15__hash_iteratorIPNS_11__hash_nodeISB_PvEEEERKT_, symObjAddr: 0x158C8, symBinAddr: 0x18F5C, symSize: 0x184 }
  - { offsetInCU: 0xBFCC3, offset: 0xBFCC3, size: 0x8, addend: 0x0, symName: __ZNSt3__110unique_ptrINS_11__hash_nodeINS_17__hash_value_typeINS_12basic_stringIcNS_11char_traitsIcEENS_9allocatorIcEEEEPN3mlc7FuncObjEEEPvEENS_22__hash_node_destructorINS6_ISE_EEEEED1B8ue170006Ev, symObjAddr: 0x15720, symBinAddr: 0x18DB4, symSize: 0x4C }
  - { offsetInCU: 0xC0107, offset: 0xC0107, size: 0x8, addend: 0x0, symName: __ZZN3mlc7FuncObj11FromForeignEPvPFvS1_EPFiPKviPK6MLCAnyPS6_EENKUliS8_S9_E_clEiS8_S9_, symObjAddr: 0x15AB0, symBinAddr: 0x19144, symSize: 0x2C0 }
  - { offsetInCU: 0xC08A9, offset: 0xC08A9, size: 0x8, addend: 0x0, symName: __ZN3mlc22DefaultObjectAllocatorINS_4core8FuncImplIZNS_7FuncObj11FromForeignEPvPFvS4_EPFiPKviPK6MLCAnyPS9_EEUliSB_SC_E_EEE7DeleterES4_, symObjAddr: 0x15AA4, symBinAddr: 0x19138, symSize: 0xC }
  - { offsetInCU: 0xC08E2, offset: 0xC08E2, size: 0x8, addend: 0x0, symName: __ZZN3mlc7FuncObj11FromForeignEPvPFvS1_EPFiPKviPK6MLCAnyPS6_EENKUliS8_S9_E0_clEiS8_S9_, symObjAddr: 0x15DC8, symBinAddr: 0x1945C, symSize: 0x2C4 }
  - { offsetInCU: 0xC10F6, offset: 0xC10F6, size: 0x8, addend: 0x0, symName: __ZN3mlc22DefaultObjectAllocatorINS_4core8FuncImplIZNS_7FuncObj11FromForeignEPvPFvS4_EPFiPKviPK6MLCAnyPS9_EEUliSB_SC_E0_EEE7DeleterES4_, symObjAddr: 0x15D78, symBinAddr: 0x1940C, symSize: 0x50 }
  - { offsetInCU: 0xC127A, offset: 0xC127A, size: 0x8, addend: 0x0, symName: __ZNSt3__120__shared_ptr_pointerIPvPFvS1_ENS_9allocatorIvEEED1Ev, symObjAddr: 0x1608C, symBinAddr: 0x19720, symSize: 0x4 }
  - { offsetInCU: 0xC129C, offset: 0xC129C, size: 0x8, addend: 0x0, symName: __ZNSt3__120__shared_ptr_pointerIPvPFvS1_ENS_9allocatorIvEEED1Ev, symObjAddr: 0x1608C, symBinAddr: 0x19720, symSize: 0x4 }
  - { offsetInCU: 0xC12D2, offset: 0xC12D2, size: 0x8, addend: 0x0, symName: __ZNSt3__120__shared_ptr_pointerIPvPFvS1_ENS_9allocatorIvEEED0Ev, symObjAddr: 0x16090, symBinAddr: 0x19724, symSize: 0x14 }
  - { offsetInCU: 0xC1335, offset: 0xC1335, size: 0x8, addend: 0x0, symName: __ZNSt3__120__shared_ptr_pointerIPvPFvS1_ENS_9allocatorIvEEE16__on_zero_sharedEv, symObjAddr: 0x160A4, symBinAddr: 0x19738, symSize: 0x1C }
  - { offsetInCU: 0xC13DE, offset: 0xC13DE, size: 0x8, addend: 0x0, symName: __ZNKSt3__120__shared_ptr_pointerIPvPFvS1_ENS_9allocatorIvEEE13__get_deleterERKSt9type_info, symObjAddr: 0x160C0, symBinAddr: 0x19754, symSize: 0x6C }
  - { offsetInCU: 0xC14D4, offset: 0xC14D4, size: 0x8, addend: 0x0, symName: __ZNSt3__120__shared_ptr_pointerIPvPFvS1_ENS_9allocatorIvEEE21__on_zero_shared_weakEv, symObjAddr: 0x1612C, symBinAddr: 0x197C0, symSize: 0x4 }
  - { offsetInCU: 0xC1509, offset: 0xC1509, size: 0x8, addend: 0x0, symName: __ZNSt3__120__shared_ptr_pointerIPvPFvS1_ENS_9allocatorIvEEE21__on_zero_shared_weakEv, symObjAddr: 0x1612C, symBinAddr: 0x197C0, symSize: 0x4 }
  - { offsetInCU: 0xC152B, offset: 0xC152B, size: 0x8, addend: 0x0, symName: __ZNSt3__120__shared_ptr_pointerIPvPFvS1_ENS_9allocatorIvEEE21__on_zero_shared_weakEv, symObjAddr: 0x1612C, symBinAddr: 0x197C0, symSize: 0x4 }
  - { offsetInCU: 0xC1557, offset: 0xC1557, size: 0x8, addend: 0x0, symName: __ZNSt3__120__shared_ptr_pointerIPvPFvS1_ENS_9allocatorIvEEE21__on_zero_shared_weakEv, symObjAddr: 0x1612C, symBinAddr: 0x197C0, symSize: 0x4 }
  - { offsetInCU: 0xC157E, offset: 0xC157E, size: 0x8, addend: 0x0, symName: __ZNSt3__120__shared_ptr_pointerIPvPFvS1_ENS_9allocatorIvEEE21__on_zero_shared_weakEv, symObjAddr: 0x1612C, symBinAddr: 0x197C0, symSize: 0x4 }
  - { offsetInCU: 0xC165C, offset: 0xC165C, size: 0x8, addend: 0x0, symName: __ZNSt3__112__hash_tableINS_17__hash_value_typeINS_12basic_stringIcNS_11char_traitsIcEENS_9allocatorIcEEEE12DLDeviceTypeEENS_22__unordered_map_hasherIS7_S9_NS_4hashIS7_EENS_8equal_toIS7_EELb1EEENS_21__unordered_map_equalIS7_S9_SE_SC_Lb1EEENS5_IS9_EEE21__construct_node_hashIRKNS_4pairIKS7_S8_EEJEEENS_10unique_ptrINS_11__hash_nodeIS9_PvEENS_22__hash_node_destructorINS5_IST_EEEEEEmOT_DpOT0_, symObjAddr: 0x164C4, symBinAddr: 0x19B58, symSize: 0xEC }
  - { offsetInCU: 0xC1C3F, offset: 0xC1C3F, size: 0x8, addend: 0x0, symName: __ZNSt3__112__hash_tableINS_17__hash_value_typeINS_12basic_stringIcNS_11char_traitsIcEENS_9allocatorIcEEEE12DLDeviceTypeEENS_22__unordered_map_hasherIS7_S9_NS_4hashIS7_EENS_8equal_toIS7_EELb1EEENS_21__unordered_map_equalIS7_S9_SE_SC_Lb1EEENS5_IS9_EEE11__do_rehashILb1EEEvm, symObjAddr: 0x165FC, symBinAddr: 0x19C90, symSize: 0x15C }
  - { offsetInCU: 0xC20B5, offset: 0xC20B5, size: 0x8, addend: 0x0, symName: __ZNSt3__112__hash_tableINS_17__hash_value_typeINS_12basic_stringIcNS_11char_traitsIcEENS_9allocatorIcEEEE10DLDataTypeEENS_22__unordered_map_hasherIS7_S9_NS_4hashIS7_EENS_8equal_toIS7_EELb1EEENS_21__unordered_map_equalIS7_S9_SE_SC_Lb1EEENS5_IS9_EEE25__emplace_unique_key_argsIS7_JRKNS_4pairIKS7_S8_EEEEENSL_INS_15__hash_iteratorIPNS_11__hash_nodeIS9_PvEEEEbEERKT_DpOT0_, symObjAddr: 0x16758, symBinAddr: 0x19DEC, symSize: 0x380 }
  - { offsetInCU: 0xC20CA, offset: 0xC20CA, size: 0x8, addend: 0x0, symName: __ZNSt3__110unique_ptrINS_11__hash_nodeINS_17__hash_value_typeINS_12basic_stringIcNS_11char_traitsIcEENS_9allocatorIcEEEE12DLDeviceTypeEEPvEENS_22__hash_node_destructorINS6_ISC_EEEEED1B8ue170006Ev, symObjAddr: 0x165B0, symBinAddr: 0x19C44, symSize: 0x4C }
  - { offsetInCU: 0xC27FA, offset: 0xC27FA, size: 0x8, addend: 0x0, symName: __ZNSt3__112__hash_tableINS_17__hash_value_typeINS_12basic_stringIcNS_11char_traitsIcEENS_9allocatorIcEEEE10DLDataTypeEENS_22__unordered_map_hasherIS7_S9_NS_4hashIS7_EENS_8equal_toIS7_EELb1EEENS_21__unordered_map_equalIS7_S9_SE_SC_Lb1EEENS5_IS9_EEE21__construct_node_hashIRKNS_4pairIKS7_S8_EEJEEENS_10unique_ptrINS_11__hash_nodeIS9_PvEENS_22__hash_node_destructorINS5_IST_EEEEEEmOT_DpOT0_, symObjAddr: 0x16AD8, symBinAddr: 0x1A16C, symSize: 0xEC }
  - { offsetInCU: 0xC2DDD, offset: 0xC2DDD, size: 0x8, addend: 0x0, symName: __ZNSt3__112__hash_tableINS_17__hash_value_typeINS_12basic_stringIcNS_11char_traitsIcEENS_9allocatorIcEEEE10DLDataTypeEENS_22__unordered_map_hasherIS7_S9_NS_4hashIS7_EENS_8equal_toIS7_EELb1EEENS_21__unordered_map_equalIS7_S9_SE_SC_Lb1EEENS5_IS9_EEE11__do_rehashILb1EEEvm, symObjAddr: 0x16C10, symBinAddr: 0x1A2A4, symSize: 0x15C }
  - { offsetInCU: 0xC3253, offset: 0xC3253, size: 0x8, addend: 0x0, symName: __ZN3mlc4core16ReflectionHelper13PrepareMethodIRFNS_3RefINS_6ObjectEEEvEEE13MLCTypeMethodPKcOT_, symObjAddr: 0x16D6C, symBinAddr: 0x1A400, symSize: 0x194 }
  - { offsetInCU: 0xC3268, offset: 0xC3268, size: 0x8, addend: 0x0, symName: __ZNSt3__110unique_ptrINS_11__hash_nodeINS_17__hash_value_typeINS_12basic_stringIcNS_11char_traitsIcEENS_9allocatorIcEEEE10DLDataTypeEEPvEENS_22__hash_node_destructorINS6_ISC_EEEEED1B8ue170006Ev, symObjAddr: 0x16BC4, symBinAddr: 0x1A258, symSize: 0x4C }
  - { offsetInCU: 0xC39EC, offset: 0xC39EC, size: 0x8, addend: 0x0, symName: __ZN3mlc4core8Func2StrINS_3RefINS_6ObjectEEEJEE3RunIJEEENSt3__112basic_stringIcNS7_11char_traitsIcEENS7_9allocatorIcEEEENS7_16integer_sequenceImJXspT_EEEE, symObjAddr: 0x17170, symBinAddr: 0x1A804, symSize: 0x1D4 }
  - { offsetInCU: 0xC3FDF, offset: 0xC3FDF, size: 0x8, addend: 0x0, symName: __ZN3mlc22DefaultObjectAllocatorINS_4core8FuncImplIPFNS_3RefINS_6ObjectEEEvEEEE7DeleterEPv, symObjAddr: 0x17164, symBinAddr: 0x1A7F8, symSize: 0xC }
  - { offsetInCU: 0xC400E, offset: 0xC400E, size: 0x8, addend: 0x0, symName: __ZN3mlc4base8Type2StrINS_3RefINS_6ObjectEEEE3RunEv, symObjAddr: 0x17344, symBinAddr: 0x1A9D8, symSize: 0x114 }
  - { offsetInCU: 0xC47E9, offset: 0xC47E9, size: 0x8, addend: 0x0, symName: __ZN3mlc22DefaultObjectAllocatorINS_6ObjectEE7DeleterEPv, symObjAddr: 0x17458, symBinAddr: 0x1AAEC, symSize: 0xC }
  - { offsetInCU: 0xC4842, offset: 0xC4842, size: 0x8, addend: 0x0, symName: __ZN3mlc4core19ReflectGetterSetterIPKcE6GetterEP12MLCTypeFieldPvP6MLCAny, symObjAddr: 0x17464, symBinAddr: 0x1AAF8, symSize: 0x2B4 }
  - { offsetInCU: 0xC5477, offset: 0xC5477, size: 0x8, addend: 0x0, symName: __ZNSt3__16vectorINS0_IP11MLCTypeInfoNS_9allocatorIS2_EEEENS3_IS5_EEE24__emplace_back_slow_pathIJEEEvDpOT_, symObjAddr: 0x1794C, symBinAddr: 0x1AFE0, symSize: 0x168 }
  - { offsetInCU: 0xC5A5F, offset: 0xC5A5F, size: 0x8, addend: 0x0, symName: __ZNKSt3__16vectorINS0_IP11MLCTypeInfoNS_9allocatorIS2_EEEENS3_IS5_EEE20__throw_length_errorB8ue170006Ev, symObjAddr: 0x17AB4, symBinAddr: 0x1B148, symSize: 0x14 }
  - { offsetInCU: 0xC5A6F, offset: 0xC5A6F, size: 0x8, addend: 0x0, symName: __ZN3mlc4base8Type2StrIPKcE17GetTypeAnnotationEPNSt3__16vectorIP11MLCTypeInfoNS5_9allocatorIS8_EEEE, symObjAddr: 0x17838, symBinAddr: 0x1AECC, symSize: 0x114 }
  - { offsetInCU: 0xC5F38, offset: 0xC5F38, size: 0x8, addend: 0x0, symName: __ZNSt3__16vectorINS0_IP11MLCTypeInfoNS_9allocatorIS2_EEEENS3_IS5_EEE24__emplace_back_slow_pathIJEEEvDpOT_, symObjAddr: 0x1794C, symBinAddr: 0x1AFE0, symSize: 0x168 }
  - { offsetInCU: 0xC5F43, offset: 0xC5F43, size: 0x8, addend: 0x0, symName: __ZNKSt3__16vectorIP11MLCTypeInfoNS_9allocatorIS2_EEE20__throw_length_errorB8ue170006Ev, symObjAddr: 0x17AC8, symBinAddr: 0x1B15C, symSize: 0x14 }
  - { offsetInCU: 0xC5F6C, offset: 0xC5F6C, size: 0x8, addend: 0x0, symName: __ZNKSt3__16vectorI12MLCTypeFieldNS_9allocatorIS1_EEE20__throw_length_errorB8ue170006Ev, symObjAddr: 0x17ADC, symBinAddr: 0x1B170, symSize: 0x14 }
  - { offsetInCU: 0xC6226, offset: 0xC6226, size: 0x8, addend: 0x0, symName: __ZNKSt3__16vectorINS0_IP11MLCTypeInfoNS_9allocatorIS2_EEEENS3_IS5_EEE20__throw_length_errorB8ue170006Ev, symObjAddr: 0x17AB4, symBinAddr: 0x1B148, symSize: 0x14 }
  - { offsetInCU: 0xC624F, offset: 0xC624F, size: 0x8, addend: 0x0, symName: __ZNKSt3__16vectorIP11MLCTypeInfoNS_9allocatorIS2_EEE20__throw_length_errorB8ue170006Ev, symObjAddr: 0x17AC8, symBinAddr: 0x1B15C, symSize: 0x14 }
  - { offsetInCU: 0xC64B4, offset: 0xC64B4, size: 0x8, addend: 0x0, symName: __ZN3mlc4core8Func2StrINSt3__112basic_stringIcNS2_11char_traitsIcEENS2_9allocatorIcEEEEJPKNS_8ErrorObjEEE3RunIJLm0EEEES8_NS2_16integer_sequenceImJXspT_EEEE, symObjAddr: 0x18404, symBinAddr: 0x1BA98, symSize: 0x1CC }
  - { offsetInCU: 0xC6C52, offset: 0xC6C52, size: 0x8, addend: 0x0, symName: __ZN3mlc4base8Type2StrIPKNS_8ErrorObjEE3RunEv, symObjAddr: 0x18664, symBinAddr: 0x1BCF8, symSize: 0xEC }
  - { offsetInCU: 0xC7326, offset: 0xC7326, size: 0x8, addend: 0x0, symName: __ZN3mlc22DefaultObjectAllocatorINS_4core8FuncImplIZNS1_17FuncAllocatorImplIMNS_8ErrorObjEKFNSt3__112basic_stringIcNS5_11char_traitsIcEENS5_9allocatorIcEEEEvEvE3RunESD_EUlPKS4_E_EEE7DeleterEPv, symObjAddr: 0x183F8, symBinAddr: 0x1BA8C, symSize: 0xC }
  - { offsetInCU: 0xC7355, offset: 0xC7355, size: 0x8, addend: 0x0, symName: __ZN3mlc4core8Func2StrINSt3__112basic_stringIcNS2_11char_traitsIcEENS2_9allocatorIcEEEEJPKNS_8ErrorObjEEE5ApplyILm0EEEvRNS2_13basic_ostreamIcS5_EE, symObjAddr: 0x185D0, symBinAddr: 0x1BC64, symSize: 0x94 }
  - { offsetInCU: 0xC774E, offset: 0xC774E, size: 0x8, addend: 0x0, symName: __ZN3mlc4core19ReflectGetterSetterIxE6GetterEP12MLCTypeFieldPvP6MLCAny, symObjAddr: 0x18750, symBinAddr: 0x1BDE4, symSize: 0x64 }
  - { offsetInCU: 0xC789F, offset: 0xC789F, size: 0x8, addend: 0x0, symName: __ZN3mlc4base8Type2StrIxE17GetTypeAnnotationEPNSt3__16vectorIP11MLCTypeInfoNS3_9allocatorIS6_EEEE, symObjAddr: 0x188D4, symBinAddr: 0x1BF68, symSize: 0x114 }
  - { offsetInCU: 0xC7D68, offset: 0xC7D68, size: 0x8, addend: 0x0, symName: __ZZN3mlc4core16ReflectionHelper12PrepareFieldI6MLCStrPcEE12MLCTypeFieldPKcMT_T0_ENKUlvE_clEv, symObjAddr: 0x189E8, symBinAddr: 0x1C07C, symSize: 0x120 }
  - { offsetInCU: 0xC7D73, offset: 0xC7D73, size: 0x8, addend: 0x0, symName: __ZN3mlc4base8Type2StrIPcE17GetTypeAnnotationEPNSt3__16vectorIP11MLCTypeInfoNS4_9allocatorIS7_EEEE, symObjAddr: 0x18B08, symBinAddr: 0x1C19C, symSize: 0x114 }
  - { offsetInCU: 0xC823C, offset: 0xC823C, size: 0x8, addend: 0x0, symName: __ZN3mlc4core16ReflectionHelper13PrepareMethodIMNS_6StrObjEKFNSt3__112basic_stringIcNS4_11char_traitsIcEENS4_9allocatorIcEEEEvEEE13MLCTypeMethodPKcOT_, symObjAddr: 0x18C1C, symBinAddr: 0x1C2B0, symSize: 0x198 }
  - { offsetInCU: 0xC8470, offset: 0xC8470, size: 0x8, addend: 0x0, symName: __ZN3mlc4core8Func2StrINSt3__112basic_stringIcNS2_11char_traitsIcEENS2_9allocatorIcEEEEJPKNS_6StrObjEEE3RunIJLm0EEEES8_NS2_16integer_sequenceImJXspT_EEEE, symObjAddr: 0x19530, symBinAddr: 0x1CBC4, symSize: 0x1CC }
  - { offsetInCU: 0xC8C0E, offset: 0xC8C0E, size: 0x8, addend: 0x0, symName: __ZN3mlc4base8Type2StrIPKNS_6StrObjEE3RunEv, symObjAddr: 0x19790, symBinAddr: 0x1CE24, symSize: 0xE8 }
  - { offsetInCU: 0xC92E2, offset: 0xC92E2, size: 0x8, addend: 0x0, symName: __ZN3mlc22DefaultObjectAllocatorINS_4core8FuncImplIZNS1_17FuncAllocatorImplIMNS_6StrObjEKFNSt3__112basic_stringIcNS5_11char_traitsIcEENS5_9allocatorIcEEEEvEvE3RunESD_EUlPKS4_E_EEE7DeleterEPv, symObjAddr: 0x19524, symBinAddr: 0x1CBB8, symSize: 0xC }
  - { offsetInCU: 0xC9311, offset: 0xC9311, size: 0x8, addend: 0x0, symName: __ZN3mlc4core8Func2StrINSt3__112basic_stringIcNS2_11char_traitsIcEENS2_9allocatorIcEEEEJPKNS_6StrObjEEE5ApplyILm0EEEvRNS2_13basic_ostreamIcS5_EE, symObjAddr: 0x196FC, symBinAddr: 0x1CD90, symSize: 0x94 }
  - { offsetInCU: 0xC96FF, offset: 0xC96FF, size: 0x8, addend: 0x0, symName: __ZN3mlc4core19ReflectGetterSetterIPvE6GetterEP12MLCTypeFieldS2_P6MLCAny, symObjAddr: 0x19998, symBinAddr: 0x1D02C, symSize: 0x64 }
  - { offsetInCU: 0xC9882, offset: 0xC9882, size: 0x8, addend: 0x0, symName: __ZN3mlc4base8Type2StrIPvE17GetTypeAnnotationEPNSt3__16vectorIP11MLCTypeInfoNS4_9allocatorIS7_EEEE, symObjAddr: 0x19B1C, symBinAddr: 0x1D1B0, symSize: 0x114 }
  - { offsetInCU: 0xC9D4B, offset: 0xC9D4B, size: 0x8, addend: 0x0, symName: __ZN3mlc4core8DictBase14InsertOrLookupINS_8UDictObjEEEPNSt3__14pairI6MLCAnyS6_EENS_3AnyE, symObjAddr: 0x19C30, symBinAddr: 0x1D2C4, symSize: 0xB8 }
  - { offsetInCU: 0xC9D82, offset: 0xC9D82, size: 0x8, addend: 0x0, symName: __ZN3mlc4core8DictBase17TryInsertOrLookupINS0_7AnyHashENS0_8AnyEqualEEEPNSt3__14pairI6MLCAnyS7_EEPS7_, symObjAddr: 0x19E30, symBinAddr: 0x1D4C4, symSize: 0x35C }
  - { offsetInCU: 0xCA2DF, offset: 0xCA2DF, size: 0x8, addend: 0x0, symName: __ZN3mlc4core8DictBase12WithCapacityINS_8UDictObjEEENS_3RefIT_EEx, symObjAddr: 0x1A18C, symBinAddr: 0x1D820, symSize: 0x250 }
  - { offsetInCU: 0xCA8AF, offset: 0xCA8AF, size: 0x8, addend: 0x0, symName: __ZN3mlc22DefaultObjectAllocatorINS_8UDictObjEE7DeleterEPv, symObjAddr: 0x19CE8, symBinAddr: 0x1D37C, symSize: 0x148 }
  - { offsetInCU: 0xCAC86, offset: 0xCAC86, size: 0x8, addend: 0x0, symName: __ZNK3mlc4core7AnyHashclERK6MLCAny, symObjAddr: 0x1A3DC, symBinAddr: 0x1DA70, symSize: 0x194 }
  - { offsetInCU: 0xCAD51, offset: 0xCAD51, size: 0x8, addend: 0x0, symName: __ZNK3mlc4core8DictBase4PrevINS0_7AnyHashEEENS0_13DictBlockIterES4_, symObjAddr: 0x1A570, symBinAddr: 0x1DC04, symSize: 0x124 }
  - { offsetInCU: 0xCB02D, offset: 0xCB02D, size: 0x8, addend: 0x0, symName: __ZZN3mlc4core8DictBase12WithCapacityINS_8UDictObjEEENS_3RefIT_EExENKUlPhP6MLCAnyS9_E_clES7_S9_S9_, symObjAddr: 0x1A694, symBinAddr: 0x1DD28, symSize: 0x1C8 }
  - { offsetInCU: 0xCB6D5, offset: 0xCB6D5, size: 0x8, addend: 0x0, symName: __ZN3mlc22DefaultObjectAllocatorINS_4core8FuncImplIPFviPKNS_7AnyViewEPNS_3AnyEEEEE7DeleterEPv, symObjAddr: 0x1AA04, symBinAddr: 0x1E098, symSize: 0xC }
  - { offsetInCU: 0xCB92D, offset: 0xCB92D, size: 0x8, addend: 0x0, symName: __ZN3mlc4core8Func2StrINSt3__112basic_stringIcNS2_11char_traitsIcEENS2_9allocatorIcEEEEJPKNS_8UDictObjEEE3RunIJLm0EEEES8_NS2_16integer_sequenceImJXspT_EEEE, symObjAddr: 0x1B324, symBinAddr: 0x1E9B8, symSize: 0x1CC }
  - { offsetInCU: 0xCC0CA, offset: 0xCC0CA, size: 0x8, addend: 0x0, symName: __ZN3mlc4base8Type2StrIPKNS_8UDictObjEE3RunEv, symObjAddr: 0x1B5D0, symBinAddr: 0x1EC64, symSize: 0x80 }
  - { offsetInCU: 0xCC3C5, offset: 0xCC3C5, size: 0x8, addend: 0x0, symName: __ZN3mlc22DefaultObjectAllocatorINS_4core8FuncImplIZNS1_17FuncAllocatorImplIMNS_8UDictObjEKFNSt3__112basic_stringIcNS5_11char_traitsIcEENS5_9allocatorIcEEEEvEvE3RunESD_EUlPKS4_E_EEE7DeleterEPv, symObjAddr: 0x1B318, symBinAddr: 0x1E9AC, symSize: 0xC }
  - { offsetInCU: 0xCC3F4, offset: 0xCC3F4, size: 0x8, addend: 0x0, symName: __ZN3mlc4core8Func2StrINSt3__112basic_stringIcNS2_11char_traitsIcEENS2_9allocatorIcEEEEJPKNS_8UDictObjEEE5ApplyILm0EEEvRNS2_13basic_ostreamIcS5_EE, symObjAddr: 0x1B4F0, symBinAddr: 0x1EB84, symSize: 0xE0 }
  - { offsetInCU: 0xCC8C6, offset: 0xCC8C6, size: 0x8, addend: 0x0, symName: __ZN3mlc4base8Type2StrIKNS_8UDictObjEE3RunEv, symObjAddr: 0x1B650, symBinAddr: 0x1ECE4, symSize: 0x218 }
  - { offsetInCU: 0xCDBB5, offset: 0xCDBB5, size: 0x8, addend: 0x0, symName: __ZN3mlc4core8Func2StrINS_3AnyEJPNS_8UDictObjES2_EE3RunIJLm0ELm1EEEENSt3__112basic_stringIcNS7_11char_traitsIcEENS7_9allocatorIcEEEENS7_16integer_sequenceImJXspT_EEEE, symObjAddr: 0x1C39C, symBinAddr: 0x1FA30, symSize: 0x1C8 }
  - { offsetInCU: 0xCE357, offset: 0xCE357, size: 0x8, addend: 0x0, symName: __ZN3mlc4base8Type2StrIPNS_8UDictObjEE3RunEv, symObjAddr: 0x1C6E0, symBinAddr: 0x1FD74, symSize: 0x80 }
  - { offsetInCU: 0xCE652, offset: 0xCE652, size: 0x8, addend: 0x0, symName: __ZN3mlc22DefaultObjectAllocatorINS_4core8FuncImplIPFNS_3AnyEPNS_8UDictObjES3_EEEE7DeleterEPv, symObjAddr: 0x1C390, symBinAddr: 0x1FA24, symSize: 0xC }
  - { offsetInCU: 0xCE681, offset: 0xCE681, size: 0x8, addend: 0x0, symName: __ZN3mlc4core8Func2StrINS_3AnyEJPNS_8UDictObjES2_EE5ApplyILm0EEEvRNSt3__113basic_ostreamIcNS7_11char_traitsIcEEEE, symObjAddr: 0x1C564, symBinAddr: 0x1FBF8, symSize: 0xE0 }
  - { offsetInCU: 0xCEB4C, offset: 0xCEB4C, size: 0x8, addend: 0x0, symName: __ZN3mlc4core8Func2StrINS_3AnyEJPNS_8UDictObjES2_EE5ApplyILm1EEEvRNSt3__113basic_ostreamIcNS7_11char_traitsIcEEEE, symObjAddr: 0x1C644, symBinAddr: 0x1FCD8, symSize: 0x9C }
  - { offsetInCU: 0xCF082, offset: 0xCF082, size: 0x8, addend: 0x0, symName: __ZN3mlc4base8Type2StrINS_8UDictObjEE3RunEv, symObjAddr: 0x1C760, symBinAddr: 0x1FDF4, symSize: 0x218 }
  - { offsetInCU: 0xD034C, offset: 0xD034C, size: 0x8, addend: 0x0, symName: __ZN3mlc4core8Func2StrINS_3AnyEJPNS_8UDictObjExEE3RunIJLm0ELm1EEEENSt3__112basic_stringIcNS7_11char_traitsIcEENS7_9allocatorIcEEEENS7_16integer_sequenceImJXspT_EEEE, symObjAddr: 0x1D670, symBinAddr: 0x20D04, symSize: 0x1C8 }
  - { offsetInCU: 0xD0AEF, offset: 0xD0AEF, size: 0x8, addend: 0x0, symName: __ZN3mlc22DefaultObjectAllocatorINS_4core8FuncImplIPFNS_3AnyEPNS_8UDictObjExEEEE7DeleterEPv, symObjAddr: 0x1D664, symBinAddr: 0x20CF8, symSize: 0xC }
  - { offsetInCU: 0xD0B1E, offset: 0xD0B1E, size: 0x8, addend: 0x0, symName: __ZN3mlc4core8Func2StrINS_3AnyEJPNS_8UDictObjExEE5ApplyILm0EEEvRNSt3__113basic_ostreamIcNS7_11char_traitsIcEEEE, symObjAddr: 0x1D838, symBinAddr: 0x20ECC, symSize: 0xE0 }
  - { offsetInCU: 0xD0FE9, offset: 0xD0FE9, size: 0x8, addend: 0x0, symName: __ZN3mlc4core8Func2StrINS_3AnyEJPNS_8UDictObjExEE5ApplyILm1EEEvRNSt3__113basic_ostreamIcNS7_11char_traitsIcEEEE, symObjAddr: 0x1D918, symBinAddr: 0x20FAC, symSize: 0x9C }
  - { offsetInCU: 0xD16F9, offset: 0xD16F9, size: 0x8, addend: 0x0, symName: __ZN3mlc4core8Func2StrIxJPNS_8UDictObjExEE3RunIJLm0ELm1EEEENSt3__112basic_stringIcNS6_11char_traitsIcEENS6_9allocatorIcEEEENS6_16integer_sequenceImJXspT_EEEE, symObjAddr: 0x1E670, symBinAddr: 0x21D04, symSize: 0x1C8 }
  - { offsetInCU: 0xD1E9C, offset: 0xD1E9C, size: 0x8, addend: 0x0, symName: __ZN3mlc22DefaultObjectAllocatorINS_4core8FuncImplIPFxPNS_8UDictObjExEEEE7DeleterEPv, symObjAddr: 0x1E664, symBinAddr: 0x21CF8, symSize: 0xC }
  - { offsetInCU: 0xD1ECB, offset: 0xD1ECB, size: 0x8, addend: 0x0, symName: __ZN3mlc4core8Func2StrIxJPNS_8UDictObjExEE5ApplyILm0EEEvRNSt3__113basic_ostreamIcNS6_11char_traitsIcEEEE, symObjAddr: 0x1E838, symBinAddr: 0x21ECC, symSize: 0xE0 }
  - { offsetInCU: 0xD2396, offset: 0xD2396, size: 0x8, addend: 0x0, symName: __ZN3mlc4core8Func2StrIxJPNS_8UDictObjExEE5ApplyILm1EEEvRNSt3__113basic_ostreamIcNS6_11char_traitsIcEEEE, symObjAddr: 0x1E918, symBinAddr: 0x21FAC, symSize: 0x9C }
  - { offsetInCU: 0xD299E, offset: 0xD299E, size: 0x8, addend: 0x0, symName: __ZN3mlc22DefaultObjectAllocatorINS_8UListObjEE7DeleterEPv, symObjAddr: 0x1ED88, symBinAddr: 0x2241C, symSize: 0x98 }
  - { offsetInCU: 0xD2D03, offset: 0xD2D03, size: 0x8, addend: 0x0, symName: __ZNSt3__128__exception_guard_exceptionsINS_29_AllocatorDestroyRangeReverseINS_9allocatorIN3mlc3AnyEEEPS4_EEED1B8ue170006Ev, symObjAddr: 0x1F080, symBinAddr: 0x22714, symSize: 0x98 }
  - { offsetInCU: 0xD30CB, offset: 0xD30CB, size: 0x8, addend: 0x0, symName: __ZN3mlc4core8Func2StrINSt3__112basic_stringIcNS2_11char_traitsIcEENS2_9allocatorIcEEEEJPKNS_8UListObjEEE3RunIJLm0EEEES8_NS2_16integer_sequenceImJXspT_EEEE, symObjAddr: 0x1FDAC, symBinAddr: 0x23440, symSize: 0x1CC }
  - { offsetInCU: 0xD3868, offset: 0xD3868, size: 0x8, addend: 0x0, symName: __ZN3mlc4base8Type2StrIPKNS_8UListObjEE3RunEv, symObjAddr: 0x20058, symBinAddr: 0x236EC, symSize: 0x80 }
  - { offsetInCU: 0xD3B63, offset: 0xD3B63, size: 0x8, addend: 0x0, symName: __ZN3mlc22DefaultObjectAllocatorINS_4core8FuncImplIZNS1_17FuncAllocatorImplIMNS_8UListObjEKFNSt3__112basic_stringIcNS5_11char_traitsIcEENS5_9allocatorIcEEEEvEvE3RunESD_EUlPKS4_E_EEE7DeleterEPv, symObjAddr: 0x1FDA0, symBinAddr: 0x23434, symSize: 0xC }
  - { offsetInCU: 0xD3B92, offset: 0xD3B92, size: 0x8, addend: 0x0, symName: __ZN3mlc4core8Func2StrINSt3__112basic_stringIcNS2_11char_traitsIcEENS2_9allocatorIcEEEEJPKNS_8UListObjEEE5ApplyILm0EEEvRNS2_13basic_ostreamIcS5_EE, symObjAddr: 0x1FF78, symBinAddr: 0x2360C, symSize: 0xE0 }
  - { offsetInCU: 0xD4064, offset: 0xD4064, size: 0x8, addend: 0x0, symName: __ZN3mlc4base8Type2StrIKNS_8UListObjEE3RunEv, symObjAddr: 0x200D8, symBinAddr: 0x2376C, symSize: 0x104 }
  - { offsetInCU: 0xD49CD, offset: 0xD49CD, size: 0x8, addend: 0x0, symName: __ZN3mlc4core8Func2StrINS_3AnyEJPNS_8UListObjExEE3RunIJLm0ELm1EEEENSt3__112basic_stringIcNS7_11char_traitsIcEENS7_9allocatorIcEEEENS7_16integer_sequenceImJXspT_EEEE, symObjAddr: 0x20ED4, symBinAddr: 0x24568, symSize: 0x1C8 }
  - { offsetInCU: 0xD516F, offset: 0xD516F, size: 0x8, addend: 0x0, symName: __ZN3mlc4base8Type2StrIPNS_8UListObjEE3RunEv, symObjAddr: 0x21218, symBinAddr: 0x248AC, symSize: 0x80 }
  - { offsetInCU: 0xD546A, offset: 0xD546A, size: 0x8, addend: 0x0, symName: __ZN3mlc22DefaultObjectAllocatorINS_4core8FuncImplIPFNS_3AnyEPNS_8UListObjExEEEE7DeleterEPv, symObjAddr: 0x20EC8, symBinAddr: 0x2455C, symSize: 0xC }
  - { offsetInCU: 0xD5499, offset: 0xD5499, size: 0x8, addend: 0x0, symName: __ZN3mlc4core8Func2StrINS_3AnyEJPNS_8UListObjExEE5ApplyILm0EEEvRNSt3__113basic_ostreamIcNS7_11char_traitsIcEEEE, symObjAddr: 0x2109C, symBinAddr: 0x24730, symSize: 0xE0 }
  - { offsetInCU: 0xD5964, offset: 0xD5964, size: 0x8, addend: 0x0, symName: __ZN3mlc4core8Func2StrINS_3AnyEJPNS_8UListObjExEE5ApplyILm1EEEvRNSt3__113basic_ostreamIcNS7_11char_traitsIcEEEE, symObjAddr: 0x2117C, symBinAddr: 0x24810, symSize: 0x9C }
  - { offsetInCU: 0xD5E9A, offset: 0xD5E9A, size: 0x8, addend: 0x0, symName: __ZN3mlc4base8Type2StrINS_8UListObjEE3RunEv, symObjAddr: 0x21298, symBinAddr: 0x2492C, symSize: 0x104 }
  - { offsetInCU: 0xD67CA, offset: 0xD67CA, size: 0x8, addend: 0x0, symName: __ZN3mlc4core8Func2StrINSt3__112basic_stringIcNS2_11char_traitsIcEENS2_9allocatorIcEEEEJPvEE3RunIJLm0EEEES8_NS2_16integer_sequenceImJXspT_EEEE, symObjAddr: 0x21BC8, symBinAddr: 0x2525C, symSize: 0x1CC }
  - { offsetInCU: 0xD6F68, offset: 0xD6F68, size: 0x8, addend: 0x0, symName: __ZN3mlc22DefaultObjectAllocatorINS_4core8FuncImplIPFNSt3__112basic_stringIcNS3_11char_traitsIcEENS3_9allocatorIcEEEEPvEEEE7DeleterESA_, symObjAddr: 0x21BBC, symBinAddr: 0x25250, symSize: 0xC }
  - { offsetInCU: 0xD6F97, offset: 0xD6F97, size: 0x8, addend: 0x0, symName: __ZN3mlc4core8Func2StrINSt3__112basic_stringIcNS2_11char_traitsIcEENS2_9allocatorIcEEEEJPvEE5ApplyILm0EEEvRNS2_13basic_ostreamIcS5_EE, symObjAddr: 0x21D94, symBinAddr: 0x25428, symSize: 0x84 }
  - { offsetInCU: 0xD7603, offset: 0xD7603, size: 0x8, addend: 0x0, symName: __ZN3mlc4core8Func2StrINSt3__112basic_stringIcNS2_11char_traitsIcEENS2_9allocatorIcEEEEJxEE3RunIJLm0EEEES8_NS2_16integer_sequenceImJXspT_EEEE, symObjAddr: 0x22634, symBinAddr: 0x25CC8, symSize: 0x1CC }
  - { offsetInCU: 0xD7DA1, offset: 0xD7DA1, size: 0x8, addend: 0x0, symName: __ZN3mlc22DefaultObjectAllocatorINS_4core8FuncImplIPFNSt3__112basic_stringIcNS3_11char_traitsIcEENS3_9allocatorIcEEEExEEEE7DeleterEPv, symObjAddr: 0x22628, symBinAddr: 0x25CBC, symSize: 0xC }
  - { offsetInCU: 0xD7DD0, offset: 0xD7DD0, size: 0x8, addend: 0x0, symName: __ZN3mlc4core8Func2StrINSt3__112basic_stringIcNS2_11char_traitsIcEENS2_9allocatorIcEEEEJxEE5ApplyILm0EEEvRNS2_13basic_ostreamIcS5_EE, symObjAddr: 0x22800, symBinAddr: 0x25E94, symSize: 0x84 }
  - { offsetInCU: 0xD8474, offset: 0xD8474, size: 0x8, addend: 0x0, symName: __ZN3mlc4core8Func2StrINSt3__112basic_stringIcNS2_11char_traitsIcEENS2_9allocatorIcEEEEJdEE3RunIJLm0EEEES8_NS2_16integer_sequenceImJXspT_EEEE, symObjAddr: 0x230C0, symBinAddr: 0x26754, symSize: 0x1CC }
  - { offsetInCU: 0xD8C12, offset: 0xD8C12, size: 0x8, addend: 0x0, symName: __ZN3mlc22DefaultObjectAllocatorINS_4core8FuncImplIPFNSt3__112basic_stringIcNS3_11char_traitsIcEENS3_9allocatorIcEEEEdEEEE7DeleterEPv, symObjAddr: 0x230B4, symBinAddr: 0x26748, symSize: 0xC }
  - { offsetInCU: 0xD8C41, offset: 0xD8C41, size: 0x8, addend: 0x0, symName: __ZN3mlc4core8Func2StrINSt3__112basic_stringIcNS2_11char_traitsIcEENS2_9allocatorIcEEEEJdEE5ApplyILm0EEEvRNS2_13basic_ostreamIcS5_EE, symObjAddr: 0x2328C, symBinAddr: 0x26920, symSize: 0x8C }
  - { offsetInCU: 0xD9262, offset: 0xD9262, size: 0x8, addend: 0x0, symName: __ZN3mlc4core8Func2StrI8DLDeviceJNS_7AnyViewEEE3RunIJLm0EEEENSt3__112basic_stringIcNS6_11char_traitsIcEENS6_9allocatorIcEEEENS6_16integer_sequenceImJXspT_EEEE, symObjAddr: 0x23760, symBinAddr: 0x26DF4, symSize: 0x1CC }
  - { offsetInCU: 0xD9A00, offset: 0xD9A00, size: 0x8, addend: 0x0, symName: '__ZN3mlc22DefaultObjectAllocatorINS_4core8FuncImplINS_8registry8_POD_REG3$_0EEEE7DeleterEPv', symObjAddr: 0x23754, symBinAddr: 0x26DE8, symSize: 0xC }
  - { offsetInCU: 0xD9A2F, offset: 0xD9A2F, size: 0x8, addend: 0x0, symName: __ZN3mlc4core8Func2StrI8DLDeviceJNS_7AnyViewEEE5ApplyILm0EEEvRNSt3__113basic_ostreamIcNS6_11char_traitsIcEEEE, symObjAddr: 0x2392C, symBinAddr: 0x26FC0, symSize: 0x94 }
  - { offsetInCU: 0xDA0B0, offset: 0xDA0B0, size: 0x8, addend: 0x0, symName: __ZN3mlc4core8Func2StrINSt3__112basic_stringIcNS2_11char_traitsIcEENS2_9allocatorIcEEEEJ8DLDeviceEE3RunIJLm0EEEES8_NS2_16integer_sequenceImJXspT_EEEE, symObjAddr: 0x2433C, symBinAddr: 0x279D0, symSize: 0x1CC }
  - { offsetInCU: 0xDA84E, offset: 0xDA84E, size: 0x8, addend: 0x0, symName: __ZN3mlc22DefaultObjectAllocatorINS_4core8FuncImplIPFNSt3__112basic_stringIcNS3_11char_traitsIcEENS3_9allocatorIcEEEE8DLDeviceEEEE7DeleterEPv, symObjAddr: 0x24330, symBinAddr: 0x279C4, symSize: 0xC }
  - { offsetInCU: 0xDA87D, offset: 0xDA87D, size: 0x8, addend: 0x0, symName: __ZN3mlc4core8Func2StrINSt3__112basic_stringIcNS2_11char_traitsIcEENS2_9allocatorIcEEEEJ8DLDeviceEE5ApplyILm0EEEvRNS2_13basic_ostreamIcS5_EE, symObjAddr: 0x24508, symBinAddr: 0x27B9C, symSize: 0x90 }
  - { offsetInCU: 0xDAF18, offset: 0xDAF18, size: 0x8, addend: 0x0, symName: __ZN3mlc4core8Func2StrI10DLDataTypeJNS_7AnyViewEEE3RunIJLm0EEEENSt3__112basic_stringIcNS6_11char_traitsIcEENS6_9allocatorIcEEEENS6_16integer_sequenceImJXspT_EEEE, symObjAddr: 0x249DC, symBinAddr: 0x28070, symSize: 0x1D0 }
  - { offsetInCU: 0xDB6A1, offset: 0xDB6A1, size: 0x8, addend: 0x0, symName: '__ZN3mlc22DefaultObjectAllocatorINS_4core8FuncImplINS_8registry8_POD_REG3$_1EEEE7DeleterEPv', symObjAddr: 0x249D0, symBinAddr: 0x28064, symSize: 0xC }
  - { offsetInCU: 0xDB6D0, offset: 0xDB6D0, size: 0x8, addend: 0x0, symName: __ZN3mlc4core8Func2StrI10DLDataTypeJNS_7AnyViewEEE5ApplyILm0EEEvRNSt3__113basic_ostreamIcNS6_11char_traitsIcEEEE, symObjAddr: 0x24BAC, symBinAddr: 0x28240, symSize: 0x94 }
  - { offsetInCU: 0xDBD51, offset: 0xDBD51, size: 0x8, addend: 0x0, symName: __ZN3mlc4core8Func2StrINSt3__112basic_stringIcNS2_11char_traitsIcEENS2_9allocatorIcEEEEJ10DLDataTypeEE3RunIJLm0EEEES8_NS2_16integer_sequenceImJXspT_EEEE, symObjAddr: 0x255B4, symBinAddr: 0x28C48, symSize: 0x1CC }
  - { offsetInCU: 0xDC4EF, offset: 0xDC4EF, size: 0x8, addend: 0x0, symName: __ZN3mlc22DefaultObjectAllocatorINS_4core8FuncImplIPFNSt3__112basic_stringIcNS3_11char_traitsIcEENS3_9allocatorIcEEEE10DLDataTypeEEEE7DeleterEPv, symObjAddr: 0x255A8, symBinAddr: 0x28C3C, symSize: 0xC }
  - { offsetInCU: 0xDC51E, offset: 0xDC51E, size: 0x8, addend: 0x0, symName: __ZN3mlc4core8Func2StrINSt3__112basic_stringIcNS2_11char_traitsIcEENS2_9allocatorIcEEEEJ10DLDataTypeEE5ApplyILm0EEEvRNS2_13basic_ostreamIcS5_EE, symObjAddr: 0x25780, symBinAddr: 0x28E14, symSize: 0x8C }
  - { offsetInCU: 0xDCBB9, offset: 0xDCBB9, size: 0x8, addend: 0x0, symName: __ZN3mlc4core8Func2StrINSt3__112basic_stringIcNS2_11char_traitsIcEENS2_9allocatorIcEEEEJPKcEE3RunIJLm0EEEES8_NS2_16integer_sequenceImJXspT_EEEE, symObjAddr: 0x26054, symBinAddr: 0x296E8, symSize: 0x1CC }
  - { offsetInCU: 0xDD357, offset: 0xDD357, size: 0x8, addend: 0x0, symName: __ZN3mlc22DefaultObjectAllocatorINS_4core8FuncImplIPFNSt3__112basic_stringIcNS3_11char_traitsIcEENS3_9allocatorIcEEEEPKcEEEE7DeleterEPv, symObjAddr: 0x26048, symBinAddr: 0x296DC, symSize: 0xC }
  - { offsetInCU: 0xDD386, offset: 0xDD386, size: 0x8, addend: 0x0, symName: __ZN3mlc4core8Func2StrINSt3__112basic_stringIcNS2_11char_traitsIcEENS2_9allocatorIcEEEEJPKcEE5ApplyILm0EEEvRNS2_13basic_ostreamIcS5_EE, symObjAddr: 0x26220, symBinAddr: 0x298B4, symSize: 0x90 }
  - { offsetInCU: 0xDD971, offset: 0xDD971, size: 0x8, addend: 0x0, symName: __ZN3mlc4base10TypeTraitsINSt3__112basic_stringIcNS2_11char_traitsIcEENS2_9allocatorIcEEEEvE16AnyToTypeUnownedEPK6MLCAny, symObjAddr: 0x2750C, symBinAddr: 0x2ABA0, symSize: 0xDC }
  - { offsetInCU: 0xDDD79, offset: 0xDDD79, size: 0x8, addend: 0x0, symName: __ZN3mlc8registry9TypeTable7LoadDSOENSt3__112basic_stringIcNS2_11char_traitsIcEENS2_9allocatorIcEEEE, symObjAddr: 0x26BF4, symBinAddr: 0x2A288, symSize: 0xB0 }
  - { offsetInCU: 0xDDFD8, offset: 0xDDFD8, size: 0x8, addend: 0x0, symName: __ZN3mlc4core8Func2StrIvJNSt3__112basic_stringIcNS2_11char_traitsIcEENS2_9allocatorIcEEEEEE3RunIJLm0EEEES8_NS2_16integer_sequenceImJXspT_EEEE, symObjAddr: 0x269A0, symBinAddr: 0x2A034, symSize: 0x1C4 }
  - { offsetInCU: 0xDE776, offset: 0xDE776, size: 0x8, addend: 0x0, symName: '__ZN3mlc22DefaultObjectAllocatorINS_4core8FuncImplIN12_GLOBAL__N_13$_2EEEE7DeleterEPv', symObjAddr: 0x26994, symBinAddr: 0x2A028, symSize: 0xC }
  - { offsetInCU: 0xDE7AC, offset: 0xDE7AC, size: 0x8, addend: 0x0, symName: __ZN3mlc4core8Func2StrIvJNSt3__112basic_stringIcNS2_11char_traitsIcEENS2_9allocatorIcEEEEEE5ApplyILm0EEEvRNS2_13basic_ostreamIcS5_EE, symObjAddr: 0x26B64, symBinAddr: 0x2A1F8, symSize: 0x90 }
  - { offsetInCU: 0xDED2D, offset: 0xDED2D, size: 0x8, addend: 0x0, symName: __ZNSt3__112__hash_tableINS_17__hash_value_typeINS_12basic_stringIcNS_11char_traitsIcEENS_9allocatorIcEEEENS_10unique_ptrIN3mlc8registry10DSOLibraryENS_14default_deleteISB_EEEEEENS_22__unordered_map_hasherIS7_SF_NS_4hashIS7_EENS_8equal_toIS7_EELb1EEENS_21__unordered_map_equalIS7_SF_SK_SI_Lb1EEENS5_ISF_EEE25__emplace_unique_key_argsIS7_JRKNS_21piecewise_construct_tENS_5tupleIJRKS7_EEENSU_IJODnEEEEEENS_4pairINS_15__hash_iteratorIPNS_11__hash_nodeISF_PvEEEEbEERKT_DpOT0_, symObjAddr: 0x26DA8, symBinAddr: 0x2A43C, symSize: 0x3B4 }
  - { offsetInCU: 0xDF50C, offset: 0xDF50C, size: 0x8, addend: 0x0, symName: __ZN3mlc8registry10DSOLibraryC2ENSt3__112basic_stringIcNS2_11char_traitsIcEENS2_9allocatorIcEEEE, symObjAddr: 0x27410, symBinAddr: 0x2AAA4, symSize: 0xFC }
  - { offsetInCU: 0xDF927, offset: 0xDF927, size: 0x8, addend: 0x0, symName: __ZNSt3__112__hash_tableINS_17__hash_value_typeINS_12basic_stringIcNS_11char_traitsIcEENS_9allocatorIcEEEENS_10unique_ptrIN3mlc8registry10DSOLibraryENS_14default_deleteISB_EEEEEENS_22__unordered_map_hasherIS7_SF_NS_4hashIS7_EENS_8equal_toIS7_EELb1EEENS_21__unordered_map_equalIS7_SF_SK_SI_Lb1EEENS5_ISF_EEE21__construct_node_hashIRKNS_21piecewise_construct_tEJNS_5tupleIJRKS7_EEENSU_IJODnEEEEEENS8_INS_11__hash_nodeISF_PvEENS_22__hash_node_destructorINS5_IS12_EEEEEEmOT_DpOT0_, symObjAddr: 0x2715C, symBinAddr: 0x2A7F0, symSize: 0xE8 }
  - { offsetInCU: 0xE0027, offset: 0xE0027, size: 0x8, addend: 0x0, symName: __ZNSt3__112__hash_tableINS_17__hash_value_typeINS_12basic_stringIcNS_11char_traitsIcEENS_9allocatorIcEEEENS_10unique_ptrIN3mlc8registry10DSOLibraryENS_14default_deleteISB_EEEEEENS_22__unordered_map_hasherIS7_SF_NS_4hashIS7_EENS_8equal_toIS7_EELb1EEENS_21__unordered_map_equalIS7_SF_SK_SI_Lb1EEENS5_ISF_EEE11__do_rehashILb1EEEvm, symObjAddr: 0x27244, symBinAddr: 0x2A8D8, symSize: 0x15C }
  - { offsetInCU: 0xE049D, offset: 0xE049D, size: 0x8, addend: 0x0, symName: __ZNSt3__110unique_ptrINS_11__hash_nodeINS_17__hash_value_typeINS_12basic_stringIcNS_11char_traitsIcEENS_9allocatorIcEEEENS0_IN3mlc8registry10DSOLibraryENS_14default_deleteISB_EEEEEEPvEENS_22__hash_node_destructorINS6_ISH_EEEEE5resetB8ue170006EPSH_, symObjAddr: 0x273A0, symBinAddr: 0x2AA34, symSize: 0x70 }
  - { offsetInCU: 0xE04B2, offset: 0xE04B2, size: 0x8, addend: 0x0, symName: __ZNSt3__110unique_ptrINS_11__hash_nodeINS_17__hash_value_typeINS_12basic_stringIcNS_11char_traitsIcEENS_9allocatorIcEEEENS0_IN3mlc8registry10DSOLibraryENS_14default_deleteISB_EEEEEEPvEENS_22__hash_node_destructorINS6_ISH_EEEEE5resetB8ue170006EPSH_, symObjAddr: 0x273A0, symBinAddr: 0x2AA34, symSize: 0x70 }
  - { offsetInCU: 0xAEF3, offset: 0xEBE90, size: 0x8, addend: 0x0, symName: '__ZN3mlc4core16FuncCallUnpackedINS_12_GLOBAL__N_13$_1EEEvPKNS_7FuncObjEiPKNS_7AnyViewEPNS_3AnyE', symObjAddr: 0x12E24, symBinAddr: 0x2E434, symSize: 0x15C }
  - { offsetInCU: 0xB33D, offset: 0xEC2DA, size: 0x8, addend: 0x0, symName: '__ZN3mlc4core16FuncCallUnpackedINS_12_GLOBAL__N_13$_2EEEvPKNS_7FuncObjEiPKNS_7AnyViewEPNS_3AnyE', symObjAddr: 0x13148, symBinAddr: 0x2E758, symSize: 0x15C }
  - { offsetInCU: 0xB7B6, offset: 0xEC753, size: 0x8, addend: 0x0, symName: '__ZN3mlc4core16FuncCallUnpackedINS_12_GLOBAL__N_13$_3EEEvPKNS_7FuncObjEiPKNS_7AnyViewEPNS_3AnyE', symObjAddr: 0x13468, symBinAddr: 0x2EA78, symSize: 0x5D8 }
  - { offsetInCU: 0xD004, offset: 0xEDFA1, size: 0x8, addend: 0x0, symName: '__ZN3mlc4core16FuncCallUnpackedINS_12_GLOBAL__N_13$_4EEEvPKNS_7FuncObjEiPKNS_7AnyViewEPNS_3AnyE', symObjAddr: 0x13C90, symBinAddr: 0x2F2A0, symSize: 0x5F8 }
  - { offsetInCU: 0xE852, offset: 0xEF7EF, size: 0x8, addend: 0x0, symName: '__ZN3mlc4core16FuncCallUnpackedINS_12_GLOBAL__N_13$_5EEEvPKNS_7FuncObjEiPKNS_7AnyViewEPNS_3AnyE', symObjAddr: 0x144F0, symBinAddr: 0x2FB00, symSize: 0x5EC }
  - { offsetInCU: 0x10111, offset: 0xF10AE, size: 0x8, addend: 0x0, symName: '__ZN3mlc4core16FuncCallUnpackedINS_12_GLOBAL__N_13$_6EEEvPKNS_7FuncObjEiPKNS_7AnyViewEPNS_3AnyE', symObjAddr: 0x14D2C, symBinAddr: 0x3033C, symSize: 0x738 }
  - { offsetInCU: 0x120AE, offset: 0xF304B, size: 0x8, addend: 0x0, symName: '__ZN3mlc4core16FuncCallUnpackedINS_12_GLOBAL__N_13$_7EEEvPKNS_7FuncObjEiPKNS_7AnyViewEPNS_3AnyE', symObjAddr: 0x160B4, symBinAddr: 0x30CDC, symSize: 0x73C }
  - { offsetInCU: 0x14021, offset: 0xF4FBE, size: 0x8, addend: 0x0, symName: '__ZN3mlc4core16FuncCallUnpackedINS_12_GLOBAL__N_13$_8EEEvPKNS_7FuncObjEiPKNS_7AnyViewEPNS_3AnyE', symObjAddr: 0x16E20, symBinAddr: 0x31680, symSize: 0x668 }
  - { offsetInCU: 0x159DD, offset: 0xF697A, size: 0x8, addend: 0x0, symName: __ZN3mlc4core12ObjPtrGetterINS_12_GLOBAL__N_117ReflectionTestObjEEEiP12MLCTypeFieldPvP6MLCAny, symObjAddr: 0x42DC, symBinAddr: 0x2DE04, symSize: 0x24 }
  - { offsetInCU: 0x15A3B, offset: 0xF69D8, size: 0x8, addend: 0x0, symName: __ZN3mlc4core12ObjPtrGetterINS_12_GLOBAL__N_117ReflectionTestObjEEEiP12MLCTypeFieldPvP6MLCAny, symObjAddr: 0x42DC, symBinAddr: 0x2DE04, symSize: 0x24 }
  - { offsetInCU: 0x15A5D, offset: 0xF69FA, size: 0x8, addend: 0x0, symName: __ZN3mlc4core12ObjPtrSetterINS_12_GLOBAL__N_117ReflectionTestObjEEEiP12MLCTypeFieldPvP6MLCAny, symObjAddr: 0x4300, symBinAddr: 0x2DE28, symSize: 0x354 }
  - { offsetInCU: 0x1641D, offset: 0xF73BA, size: 0x8, addend: 0x0, symName: __ZN3mlc4core16FuncCallUnpackedIPFNS_3RefINS_6ObjectEEEONSt3__112basic_stringIcNS5_11char_traitsIcEENS5_9allocatorIcEEEEOiEEEvPKNS_7FuncObjEiPKNS_7AnyViewEPNS_3AnyE, symObjAddr: 0x181FC, symBinAddr: 0x32980, symSize: 0xB44 }
  - { offsetInCU: 0x19709, offset: 0xFA6A6, size: 0x8, addend: 0x0, symName: __ZN3mlc4core16FuncCallUnpackedIZNS0_17FuncAllocatorImplIMNS_12_GLOBAL__N_117ReflectionTestObjEFivEvE3RunES6_EUlPS4_E_EEvPKNS_7FuncObjEiPKNS_7AnyViewEPNS_3AnyE, symObjAddr: 0x1908C, symBinAddr: 0x33810, symSize: 0x6E4 }
  - { offsetInCU: 0x1ADA5, offset: 0xFBD42, size: 0x8, addend: 0x0, symName: '__ZN3mlc4core16FuncCallUnpackedINS_12_GLOBAL__N_13$_9EEEvPKNS_7FuncObjEiPKNS_7AnyViewEPNS_3AnyE', symObjAddr: 0x19A98, symBinAddr: 0x3421C, symSize: 0x248 }
  - { offsetInCU: 0x1B325, offset: 0xFC2C2, size: 0x8, addend: 0x0, symName: '__ZN3mlc4core16FuncCallUnpackedINS_12_GLOBAL__N_14$_10EEEvPKNS_7FuncObjEiPKNS_7AnyViewEPNS_3AnyE', symObjAddr: 0x19CEC, symBinAddr: 0x34470, symSize: 0xA04 }
  - { offsetInCU: 0x1D260, offset: 0xFE1FD, size: 0x8, addend: 0x0, symName: '__ZN3mlc4core16FuncCallUnpackedINS_12_GLOBAL__N_14$_11EEEvPKNS_7FuncObjEiPKNS_7AnyViewEPNS_3AnyE', symObjAddr: 0x1AA40, symBinAddr: 0x350D8, symSize: 0xB18 }
  - { offsetInCU: 0x1F4B8, offset: 0x100455, size: 0x8, addend: 0x0, symName: '__ZN3mlc4core16FuncCallUnpackedINS_12_GLOBAL__N_13$_0EEEvPKNS_7FuncObjEiPKNS_7AnyViewEPNS_3AnyE', symObjAddr: 0x1B7B8, symBinAddr: 0x35E50, symSize: 0x728 }
  - { offsetInCU: 0x21171, offset: 0x10210E, size: 0x8, addend: 0x0, symName: '__ZN3mlc4core16FuncCallUnpackedIZNKS_12_GLOBAL__N_13$_0clENS_3StrEEUlNS_5UListEE_EEvPKNS_7FuncObjEiPKNS_7AnyViewEPNS_3AnyE', symObjAddr: 0x1C144, symBinAddr: 0x367DC, symSize: 0x660 }
  - { offsetInCU: 0x22BC2, offset: 0x103B5F, size: 0x8, addend: 0x0, symName: '__ZN3mlc4core16FuncCallUnpackedIZNKS_12_GLOBAL__N_13$_0clENS_3StrEEUlNS_4ListINS_3AnyEEEE_EEvPKNS_7FuncObjEiPKNS_7AnyViewEPS6_', symObjAddr: 0x1CDE4, symBinAddr: 0x3747C, symSize: 0x660 }
  - { offsetInCU: 0x247A8, offset: 0x105745, size: 0x8, addend: 0x0, symName: '__ZN3mlc4core16FuncCallUnpackedIZNKS_12_GLOBAL__N_13$_0clENS_3StrEEUlNS_4ListINS5_IiEEEEE_EEvPKNS_7FuncObjEiPKNS_7AnyViewEPNS_3AnyE', symObjAddr: 0x1E9C0, symBinAddr: 0x39058, symSize: 0x660 }
  - { offsetInCU: 0x2629D, offset: 0x10723A, size: 0x8, addend: 0x0, symName: '__ZN3mlc4core16FuncCallUnpackedIZNKS_12_GLOBAL__N_13$_0clENS_3StrEEUlNS_5UDictEE_EEvPKNS_7FuncObjEiPKNS_7AnyViewEPNS_3AnyE', symObjAddr: 0x2033C, symBinAddr: 0x3A9D4, symSize: 0x660 }
  - { offsetInCU: 0x27CEE, offset: 0x108C8B, size: 0x8, addend: 0x0, symName: '__ZN3mlc4core16FuncCallUnpackedIZNKS_12_GLOBAL__N_13$_0clENS_3StrEEUlNS_4DictIS4_NS_3AnyEEEE_EEvPKNS_7FuncObjEiPKNS_7AnyViewEPS6_', symObjAddr: 0x210A0, symBinAddr: 0x3B738, symSize: 0x660 }
  - { offsetInCU: 0x297E3, offset: 0x10A780, size: 0x8, addend: 0x0, symName: '__ZN3mlc4core16FuncCallUnpackedIZNKS_12_GLOBAL__N_13$_0clENS_3StrEEUlNS_4DictINS_3AnyES4_EEE_EEvPKNS_7FuncObjEiPKNS_7AnyViewEPS6_', symObjAddr: 0x227C0, symBinAddr: 0x3CE58, symSize: 0x660 }
  - { offsetInCU: 0x2B2D8, offset: 0x10C275, size: 0x8, addend: 0x0, symName: '__ZN3mlc4core16FuncCallUnpackedIZNKS_12_GLOBAL__N_13$_0clENS_3StrEEUlNS_4DictINS_3AnyES6_EEE_EEvPKNS_7FuncObjEiPKNS_7AnyViewEPS6_', symObjAddr: 0x23EB0, symBinAddr: 0x3E548, symSize: 0x660 }
  - { offsetInCU: 0x2CDCD, offset: 0x10DD6A, size: 0x8, addend: 0x0, symName: '__ZN3mlc4core16FuncCallUnpackedIZNKS_12_GLOBAL__N_13$_0clENS_3StrEEUlNS_4DictIS4_NS_4ListIiEEEEE_EEvPKNS_7FuncObjEiPKNS_7AnyViewEPNS_3AnyE', symObjAddr: 0x25244, symBinAddr: 0x3F8DC, symSize: 0x660 }
  - { offsetInCU: 0x3580B, offset: 0x1167A8, size: 0x8, addend: 0x0, symName: __ZN3mlc6InitOfINS_12_GLOBAL__N_117ReflectionTestObjEJNSt3__112basic_stringIcNS3_11char_traitsIcEENS3_9allocatorIcEEEEiEEENS_3RefINS_6ObjectEEEDpOT0_, symObjAddr: 0x47AC, symBinAddr: 0x2E2D4, symSize: 0x154 }
  - { offsetInCU: 0x490DF, offset: 0x12A07C, size: 0x8, addend: 0x0, symName: __ZN3mlc12_GLOBAL__N_117ReflectionTestObj10_type_infoE, symObjAddr: 0x2CE200, symBinAddr: 0x68668, symSize: 0x0 }
  - { offsetInCU: 0x49101, offset: 0x12A09E, size: 0x8, addend: 0x0, symName: __ZN3mlc12_GLOBAL__N_117ReflectionTestObj13_type_reflectE, symObjAddr: 0x2CE208, symBinAddr: 0x68670, symSize: 0x0 }
  - { offsetInCU: 0x49114, offset: 0x12A0B1, size: 0x8, addend: 0x0, symName: __ZN3mlc12_GLOBAL__N_114ReflectionTest13_type_reflectE, symObjAddr: 0x2CE210, symBinAddr: 0x68678, symSize: 0x0 }
  - { offsetInCU: 0x49164, offset: 0x12A101, size: 0x8, addend: 0x0, symName: __ZN3mlc12_GLOBAL__N_117ReflectionTestObj11_type_indexE, symObjAddr: 0x2CE20C, symBinAddr: 0x68674, symSize: 0x0 }
  - { offsetInCU: 0x533D2, offset: 0x13436F, size: 0x8, addend: 0x0, symName: __ZN3mlc4core16ReflectionHelper8StaticFnIRFNS_3RefINS_6ObjectEEEONSt3__112basic_stringIcNS6_11char_traitsIcEENS6_9allocatorIcEEEEOiEEERS1_PKcOT_, symObjAddr: 0x4654, symBinAddr: 0x2E17C, symSize: 0x158 }
  - { offsetInCU: 0x53913, offset: 0x1348B0, size: 0x8, addend: 0x0, symName: __ZN3mlc6InitOfINS_12_GLOBAL__N_117ReflectionTestObjEJNSt3__112basic_stringIcNS3_11char_traitsIcEENS3_9allocatorIcEEEEiEEENS_3RefINS_6ObjectEEEDpOT0_, symObjAddr: 0x47AC, symBinAddr: 0x2E2D4, symSize: 0x154 }
  - { offsetInCU: 0x53927, offset: 0x1348C4, size: 0x8, addend: 0x0, symName: __ZN3mlc4core16ReflectionHelper13PrepareMethodIRFNS_3RefINS_6ObjectEEEONSt3__112basic_stringIcNS6_11char_traitsIcEENS6_9allocatorIcEEEEOiEEE13MLCTypeMethodPKcOT_, symObjAddr: 0x18068, symBinAddr: 0x327EC, symSize: 0x194 }
  - { offsetInCU: 0x540E3, offset: 0x135080, size: 0x8, addend: 0x0, symName: __ZN3mlc12_GLOBAL__N_117ReflectionTestObj8YPlusOneEv, symObjAddr: 0x4900, symBinAddr: 0x2E428, symSize: 0xC }
  - { offsetInCU: 0x633F5, offset: 0x144392, size: 0x8, addend: 0x0, symName: __ZN3mlc4core8Func2StrIvJEE3RunIJEEENSt3__112basic_stringIcNS4_11char_traitsIcEENS4_9allocatorIcEEEENS4_16integer_sequenceImJXspT_EEEE, symObjAddr: 0x12F8C, symBinAddr: 0x2E59C, symSize: 0x1BC }
  - { offsetInCU: 0x63B78, offset: 0x144B15, size: 0x8, addend: 0x0, symName: '__ZN3mlc22DefaultObjectAllocatorINS_4core8FuncImplINS_12_GLOBAL__N_13$_1EEEE7DeleterEPv', symObjAddr: 0x12F80, symBinAddr: 0x2E590, symSize: 0xC }
  - { offsetInCU: 0x63C35, offset: 0x144BD2, size: 0x8, addend: 0x0, symName: __ZN3mlc4core8Func2StrIPvJEE3RunIJEEENSt3__112basic_stringIcNS5_11char_traitsIcEENS5_9allocatorIcEEEENS5_16integer_sequenceImJXspT_EEEE, symObjAddr: 0x132B0, symBinAddr: 0x2E8C0, symSize: 0x1B8 }
  - { offsetInCU: 0x643A3, offset: 0x145340, size: 0x8, addend: 0x0, symName: '__ZN3mlc22DefaultObjectAllocatorINS_4core8FuncImplINS_12_GLOBAL__N_13$_2EEEE7DeleterEPv', symObjAddr: 0x132A4, symBinAddr: 0x2E8B4, symSize: 0xC }
  - { offsetInCU: 0x644F3, offset: 0x145490, size: 0x8, addend: 0x0, symName: __ZN3mlc4core8Func2StrIiJiEE3RunIJLm0EEEENSt3__112basic_stringIcNS4_11char_traitsIcEENS4_9allocatorIcEEEENS4_16integer_sequenceImJXspT_EEEE, symObjAddr: 0x13A4C, symBinAddr: 0x2F05C, symSize: 0x1C0 }
  - { offsetInCU: 0x64C7C, offset: 0x145C19, size: 0x8, addend: 0x0, symName: '__ZN3mlc22DefaultObjectAllocatorINS_4core8FuncImplINS_12_GLOBAL__N_13$_3EEEE7DeleterEPv', symObjAddr: 0x13A40, symBinAddr: 0x2F050, symSize: 0xC }
  - { offsetInCU: 0x64CAB, offset: 0x145C48, size: 0x8, addend: 0x0, symName: __ZN3mlc4core8Func2StrIiJiEE5ApplyILm0EEEvRNSt3__113basic_ostreamIcNS4_11char_traitsIcEEEE, symObjAddr: 0x13C0C, symBinAddr: 0x2F21C, symSize: 0x84 }
  - { offsetInCU: 0x652BB, offset: 0x146258, size: 0x8, addend: 0x0, symName: __ZN3mlc4core8Func2StrIdJdEE3RunIJLm0EEEENSt3__112basic_stringIcNS4_11char_traitsIcEENS4_9allocatorIcEEEENS4_16integer_sequenceImJXspT_EEEE, symObjAddr: 0x14294, symBinAddr: 0x2F8A4, symSize: 0x1D0 }
  - { offsetInCU: 0x65A44, offset: 0x1469E1, size: 0x8, addend: 0x0, symName: '__ZN3mlc22DefaultObjectAllocatorINS_4core8FuncImplINS_12_GLOBAL__N_13$_4EEEE7DeleterEPv', symObjAddr: 0x14288, symBinAddr: 0x2F898, symSize: 0xC }
  - { offsetInCU: 0x65A73, offset: 0x146A10, size: 0x8, addend: 0x0, symName: __ZN3mlc4core8Func2StrIdJdEE5ApplyILm0EEEvRNSt3__113basic_ostreamIcNS4_11char_traitsIcEEEE, symObjAddr: 0x14464, symBinAddr: 0x2FA74, symSize: 0x8C }
  - { offsetInCU: 0x6604C, offset: 0x146FE9, size: 0x8, addend: 0x0, symName: __ZN3mlc4core8Func2StrIPvJS2_EE3RunIJLm0EEEENSt3__112basic_stringIcNS5_11char_traitsIcEENS5_9allocatorIcEEEENS5_16integer_sequenceImJXspT_EEEE, symObjAddr: 0x14AE8, symBinAddr: 0x300F8, symSize: 0x1C0 }
  - { offsetInCU: 0x667D5, offset: 0x147772, size: 0x8, addend: 0x0, symName: '__ZN3mlc22DefaultObjectAllocatorINS_4core8FuncImplINS_12_GLOBAL__N_13$_5EEEE7DeleterEPv', symObjAddr: 0x14ADC, symBinAddr: 0x300EC, symSize: 0xC }
  - { offsetInCU: 0x66804, offset: 0x1477A1, size: 0x8, addend: 0x0, symName: __ZN3mlc4core8Func2StrIPvJS2_EE5ApplyILm0EEEvRNSt3__113basic_ostreamIcNS5_11char_traitsIcEEEE, symObjAddr: 0x14CA8, symBinAddr: 0x302B8, symSize: 0x84 }
  - { offsetInCU: 0x66E97, offset: 0x147E34, size: 0x8, addend: 0x0, symName: __ZN3mlc4core8Func2StrI10DLDataTypeJS2_EE3RunIJLm0EEEENSt3__112basic_stringIcNS5_11char_traitsIcEENS5_9allocatorIcEEEENS5_16integer_sequenceImJXspT_EEEE, symObjAddr: 0x15470, symBinAddr: 0x30A80, symSize: 0x1D0 }
  - { offsetInCU: 0x67620, offset: 0x1485BD, size: 0x8, addend: 0x0, symName: '__ZN3mlc22DefaultObjectAllocatorINS_4core8FuncImplINS_12_GLOBAL__N_13$_6EEEE7DeleterEPv', symObjAddr: 0x15464, symBinAddr: 0x30A74, symSize: 0xC }
  - { offsetInCU: 0x6764F, offset: 0x1485EC, size: 0x8, addend: 0x0, symName: __ZN3mlc4core8Func2StrI10DLDataTypeJS2_EE5ApplyILm0EEEvRNSt3__113basic_ostreamIcNS5_11char_traitsIcEEEE, symObjAddr: 0x15640, symBinAddr: 0x30C50, symSize: 0x8C }
  - { offsetInCU: 0x680A4, offset: 0x149041, size: 0x8, addend: 0x0, symName: __ZN3mlc4core8Func2StrI8DLDeviceJS2_EE3RunIJLm0EEEENSt3__112basic_stringIcNS5_11char_traitsIcEENS5_9allocatorIcEEEENS5_16integer_sequenceImJXspT_EEEE, symObjAddr: 0x167FC, symBinAddr: 0x31424, symSize: 0x1CC }
  - { offsetInCU: 0x68842, offset: 0x1497DF, size: 0x8, addend: 0x0, symName: '__ZN3mlc22DefaultObjectAllocatorINS_4core8FuncImplINS_12_GLOBAL__N_13$_7EEEE7DeleterEPv', symObjAddr: 0x167F0, symBinAddr: 0x31418, symSize: 0xC }
  - { offsetInCU: 0x68871, offset: 0x14980E, size: 0x8, addend: 0x0, symName: __ZN3mlc4core8Func2StrI8DLDeviceJS2_EE5ApplyILm0EEEvRNSt3__113basic_ostreamIcNS5_11char_traitsIcEEEE, symObjAddr: 0x169C8, symBinAddr: 0x315F0, symSize: 0x90 }
  - { offsetInCU: 0x69028, offset: 0x149FC5, size: 0x8, addend: 0x0, symName: __ZN3mlc4core8Func2StrIPKcJS3_EE3RunIJLm0EEEENSt3__112basic_stringIcNS6_11char_traitsIcEENS6_9allocatorIcEEEENS6_16integer_sequenceImJXspT_EEEE, symObjAddr: 0x17494, symBinAddr: 0x31CF4, symSize: 0x1CC }
  - { offsetInCU: 0x697C6, offset: 0x14A763, size: 0x8, addend: 0x0, symName: '__ZN3mlc22DefaultObjectAllocatorINS_4core8FuncImplINS_12_GLOBAL__N_13$_8EEEE7DeleterEPv', symObjAddr: 0x17488, symBinAddr: 0x31CE8, symSize: 0xC }
  - { offsetInCU: 0x697F5, offset: 0x14A792, size: 0x8, addend: 0x0, symName: __ZN3mlc4core8Func2StrIPKcJS3_EE5ApplyILm0EEEvRNSt3__113basic_ostreamIcNS6_11char_traitsIcEEEE, symObjAddr: 0x17660, symBinAddr: 0x31EC0, symSize: 0x90 }
  - { offsetInCU: 0x69D2A, offset: 0x14ACC7, size: 0x8, addend: 0x0, symName: __ZN3mlc4core19ReflectGetterSetterINSt3__112basic_stringIcNS2_11char_traitsIcEENS2_9allocatorIcEEEEE6GetterEP12MLCTypeFieldPvP6MLCAny, symObjAddr: 0x176F0, symBinAddr: 0x31F50, symSize: 0x2C0 }
  - { offsetInCU: 0x6A569, offset: 0x14B506, size: 0x8, addend: 0x0, symName: __ZN3mlc4core19ReflectGetterSetterINSt3__112basic_stringIcNS2_11char_traitsIcEENS2_9allocatorIcEEEEE6SetterEP12MLCTypeFieldPvP6MLCAny, symObjAddr: 0x179B0, symBinAddr: 0x32210, symSize: 0x378 }
  - { offsetInCU: 0x6B51B, offset: 0x14C4B8, size: 0x8, addend: 0x0, symName: __ZN3mlc4base8Type2StrINSt3__112basic_stringIcNS2_11char_traitsIcEENS2_9allocatorIcEEEEE17GetTypeAnnotationEPNS2_6vectorIP11MLCTypeInfoNS6_ISC_EEEE, symObjAddr: 0x17D28, symBinAddr: 0x32588, symSize: 0x100 }
  - { offsetInCU: 0x6BA80, offset: 0x14CA1D, size: 0x8, addend: 0x0, symName: __ZN3mlc4core19ReflectGetterSetterIiE6GetterEP12MLCTypeFieldPvP6MLCAny, symObjAddr: 0x17F04, symBinAddr: 0x32688, symSize: 0x64 }
  - { offsetInCU: 0x6BBD1, offset: 0x14CB6E, size: 0x8, addend: 0x0, symName: __ZN3mlc4base8Type2StrIiE17GetTypeAnnotationEPNSt3__16vectorIP11MLCTypeInfoNS3_9allocatorIS6_EEEE, symObjAddr: 0x17F68, symBinAddr: 0x326EC, symSize: 0x100 }
  - { offsetInCU: 0x6C090, offset: 0x14D02D, size: 0x8, addend: 0x0, symName: __ZN3mlc4core16ReflectionHelper13PrepareMethodIRFNS_3RefINS_6ObjectEEEONSt3__112basic_stringIcNS6_11char_traitsIcEENS6_9allocatorIcEEEEOiEEE13MLCTypeMethodPKcOT_, symObjAddr: 0x18068, symBinAddr: 0x327EC, symSize: 0x194 }
  - { offsetInCU: 0x6C27B, offset: 0x14D218, size: 0x8, addend: 0x0, symName: __ZN3mlc4core8Func2StrINS_3RefINS_6ObjectEEEJONSt3__112basic_stringIcNS5_11char_traitsIcEENS5_9allocatorIcEEEEOiEE3RunIJLm0ELm1EEEESB_NS5_16integer_sequenceImJXspT_EEEE, symObjAddr: 0x18D4C, symBinAddr: 0x334D0, symSize: 0x1E4 }
  - { offsetInCU: 0x6C8A3, offset: 0x14D840, size: 0x8, addend: 0x0, symName: __ZN3mlc22DefaultObjectAllocatorINS_4core8FuncImplIPFNS_3RefINS_6ObjectEEEONSt3__112basic_stringIcNS6_11char_traitsIcEENS6_9allocatorIcEEEEOiEEEE7DeleterEPv, symObjAddr: 0x18D40, symBinAddr: 0x334C4, symSize: 0xC }
  - { offsetInCU: 0x6C8D2, offset: 0x14D86F, size: 0x8, addend: 0x0, symName: __ZN3mlc4core8Func2StrINS_3RefINS_6ObjectEEEJONSt3__112basic_stringIcNS5_11char_traitsIcEENS5_9allocatorIcEEEEOiEE5ApplyILm0EEEvRNS5_13basic_ostreamIcS8_EE, symObjAddr: 0x18F30, symBinAddr: 0x336B4, symSize: 0x90 }
  - { offsetInCU: 0x6CDD7, offset: 0x14DD74, size: 0x8, addend: 0x0, symName: __ZN3mlc4core8Func2StrINS_3RefINS_6ObjectEEEJONSt3__112basic_stringIcNS5_11char_traitsIcEENS5_9allocatorIcEEEEOiEE5ApplyILm1EEEvRNS5_13basic_ostreamIcS8_EE, symObjAddr: 0x18FC0, symBinAddr: 0x33744, symSize: 0x9C }
  - { offsetInCU: 0x6D34C, offset: 0x14E2E9, size: 0x8, addend: 0x0, symName: __ZN3mlc22DefaultObjectAllocatorINS_12_GLOBAL__N_117ReflectionTestObjEE7DeleterEPv, symObjAddr: 0x1905C, symBinAddr: 0x337E0, symSize: 0x30 }
  - { offsetInCU: 0x6D5F5, offset: 0x14E592, size: 0x8, addend: 0x0, symName: __ZN3mlc4core8Func2StrIiJPNS_12_GLOBAL__N_117ReflectionTestObjEEE3RunIJLm0EEEENSt3__112basic_stringIcNS7_11char_traitsIcEENS7_9allocatorIcEEEENS7_16integer_sequenceImJXspT_EEEE, symObjAddr: 0x1977C, symBinAddr: 0x33F00, symSize: 0x224 }
  - { offsetInCU: 0x6DEA6, offset: 0x14EE43, size: 0x8, addend: 0x0, symName: __ZN3mlc4base8Type2StrIPNS_12_GLOBAL__N_117ReflectionTestObjEE3RunEv, symObjAddr: 0x199A0, symBinAddr: 0x34124, symSize: 0xF8 }
  - { offsetInCU: 0x6E601, offset: 0x14F59E, size: 0x8, addend: 0x0, symName: __ZN3mlc22DefaultObjectAllocatorINS_4core8FuncImplIZNS1_17FuncAllocatorImplIMNS_12_GLOBAL__N_117ReflectionTestObjEFivEvE3RunES7_EUlPS5_E_EEE7DeleterEPv, symObjAddr: 0x19770, symBinAddr: 0x33EF4, symSize: 0xC }
  - { offsetInCU: 0x6E718, offset: 0x14F6B5, size: 0x8, addend: 0x0, symName: '__ZN3mlc22DefaultObjectAllocatorINS_4core8FuncImplINS_12_GLOBAL__N_13$_9EEEE7DeleterEPv', symObjAddr: 0x19CE0, symBinAddr: 0x34464, symSize: 0xC }
  - { offsetInCU: 0x6E87C, offset: 0x14F819, size: 0x8, addend: 0x0, symName: __ZN3mlc4core8Func2StrIvJPNS_7FuncObjEEE3RunIJLm0EEEENSt3__112basic_stringIcNS6_11char_traitsIcEENS6_9allocatorIcEEEENS6_16integer_sequenceImJXspT_EEEE, symObjAddr: 0x1A6FC, symBinAddr: 0x34E80, symSize: 0x1C4 }
  - { offsetInCU: 0x6F3EB, offset: 0x150388, size: 0x8, addend: 0x0, symName: '__ZN3mlc22DefaultObjectAllocatorINS_4core8FuncImplINS_12_GLOBAL__N_14$_10EEEE7DeleterEPv', symObjAddr: 0x1A6F0, symBinAddr: 0x34E74, symSize: 0xC }
  - { offsetInCU: 0x6F41A, offset: 0x1503B7, size: 0x8, addend: 0x0, symName: __ZN3mlc4core8Func2StrIvJPNS_7FuncObjEEE5ApplyILm0EEEvRNSt3__113basic_ostreamIcNS6_11char_traitsIcEEEE, symObjAddr: 0x1A8C0, symBinAddr: 0x35044, symSize: 0x94 }
  - { offsetInCU: 0x6F846, offset: 0x1507E3, size: 0x8, addend: 0x0, symName: __ZN3mlc4core8Func2StrINS_3AnyEJPNS_7FuncObjEEE3RunIJLm0EEEENSt3__112basic_stringIcNS7_11char_traitsIcEENS7_9allocatorIcEEEENS7_16integer_sequenceImJXspT_EEEE, symObjAddr: 0x1B564, symBinAddr: 0x35BFC, symSize: 0x1C0 }
  - { offsetInCU: 0x6FFCF, offset: 0x150F6C, size: 0x8, addend: 0x0, symName: '__ZN3mlc22DefaultObjectAllocatorINS_4core8FuncImplINS_12_GLOBAL__N_14$_11EEEE7DeleterEPv', symObjAddr: 0x1B558, symBinAddr: 0x35BF0, symSize: 0xC }
  - { offsetInCU: 0x6FFFE, offset: 0x150F9B, size: 0x8, addend: 0x0, symName: __ZN3mlc4core8Func2StrINS_3AnyEJPNS_7FuncObjEEE5ApplyILm0EEEvRNSt3__113basic_ostreamIcNS7_11char_traitsIcEEEE, symObjAddr: 0x1B724, symBinAddr: 0x35DBC, symSize: 0x94 }
  - { offsetInCU: 0x70686, offset: 0x151623, size: 0x8, addend: 0x0, symName: __ZN3mlc4core8Func2StrINS_4FuncEJNS_3StrEEE3RunIJLm0EEEENSt3__112basic_stringIcNS6_11char_traitsIcEENS6_9allocatorIcEEEENS6_16integer_sequenceImJXspT_EEEE, symObjAddr: 0x1BEEC, symBinAddr: 0x36584, symSize: 0x1D4 }
  - { offsetInCU: 0x70E9D, offset: 0x151E3A, size: 0x8, addend: 0x0, symName: __ZN3mlc4base18ObjectRefDummyRootD2Ev, symObjAddr: 0x1CD94, symBinAddr: 0x3742C, symSize: 0x50 }
  - { offsetInCU: 0x70F4B, offset: 0x151EE8, size: 0x8, addend: 0x0, symName: '__ZN3mlc4core16FuncCallUnpackedINS_12_GLOBAL__N_13$_0EEEvPKNS_7FuncObjEiPKNS_7AnyViewEPNS_3AnyE.cold.1', symObjAddr: 0x26F50, symBinAddr: 0x5172C, symSize: 0x40 }
  - { offsetInCU: 0x70F97, offset: 0x151F34, size: 0x8, addend: 0x0, symName: '__ZN3mlc22DefaultObjectAllocatorINS_4core8FuncImplINS_12_GLOBAL__N_13$_0EEEE7DeleterEPv', symObjAddr: 0x1BEE0, symBinAddr: 0x36578, symSize: 0xC }
  - { offsetInCU: 0x70FCD, offset: 0x151F6A, size: 0x8, addend: 0x0, symName: __ZN3mlc4core8Func2StrINS_4FuncEJNS_3StrEEE5ApplyILm0EEEvRNSt3__113basic_ostreamIcNS6_11char_traitsIcEEEE, symObjAddr: 0x1C0C0, symBinAddr: 0x36758, symSize: 0x84 }
  - { offsetInCU: 0x717B4, offset: 0x152751, size: 0x8, addend: 0x0, symName: __ZZN3mlc4base7PtrBase5_InitINS_8UListObjEEEvRK6MLCAnyENKUlvE_clEv, symObjAddr: 0x1CB24, symBinAddr: 0x371BC, symSize: 0x270 }
  - { offsetInCU: 0x71E22, offset: 0x152DBF, size: 0x8, addend: 0x0, symName: __ZN3mlc4base8Type2StrINS_5UListEE3RunEv, symObjAddr: 0x1CA20, symBinAddr: 0x370B8, symSize: 0x104 }
  - { offsetInCU: 0x7259E, offset: 0x15353B, size: 0x8, addend: 0x0, symName: __ZN3mlc4core8Func2StrINS_5UListEJS2_EE3RunIJLm0EEEENSt3__112basic_stringIcNS5_11char_traitsIcEENS5_9allocatorIcEEEENS5_16integer_sequenceImJXspT_EEEE, symObjAddr: 0x1C7B0, symBinAddr: 0x36E48, symSize: 0x1DC }
  - { offsetInCU: 0x72BAC, offset: 0x153B49, size: 0x8, addend: 0x0, symName: '__ZN3mlc4core16FuncCallUnpackedIZNKS_12_GLOBAL__N_13$_0clENS_3StrEEUlNS_5UListEE_EEvPKNS_7FuncObjEiPKNS_7AnyViewEPNS_3AnyE.cold.1', symObjAddr: 0x26F90, symBinAddr: 0x5176C, symSize: 0x40 }
  - { offsetInCU: 0x72BF8, offset: 0x153B95, size: 0x8, addend: 0x0, symName: '__ZN3mlc22DefaultObjectAllocatorINS_4core8FuncImplIZNKS_12_GLOBAL__N_13$_0clENS_3StrEEUlNS_5UListEE_EEE7DeleterEPv', symObjAddr: 0x1C7A4, symBinAddr: 0x36E3C, symSize: 0xC }
  - { offsetInCU: 0x72C27, offset: 0x153BC4, size: 0x8, addend: 0x0, symName: __ZN3mlc4core8Func2StrINS_5UListEJS2_EE5ApplyILm0EEEvRNSt3__113basic_ostreamIcNS5_11char_traitsIcEEEE, symObjAddr: 0x1C98C, symBinAddr: 0x37024, symSize: 0x94 }
  - { offsetInCU: 0x73323, offset: 0x1542C0, size: 0x8, addend: 0x0, symName: __ZZN3mlc4base7PtrBase5_InitINS_7ListObjINS_3AnyEEEEEvRK6MLCAnyENKUlvE_clEv, symObjAddr: 0x1D7C4, symBinAddr: 0x37E5C, symSize: 0x608 }
  - { offsetInCU: 0x74958, offset: 0x1558F5, size: 0x8, addend: 0x0, symName: __ZN3mlc4base8Type2StrINS_4ListINS_3AnyEEEE3RunEv, symObjAddr: 0x1D6C0, symBinAddr: 0x37D58, symSize: 0x104 }
  - { offsetInCU: 0x750D4, offset: 0x156071, size: 0x8, addend: 0x0, symName: __ZN3mlc4core8Func2StrINS_4ListINS_3AnyEEEJS4_EE3RunIJLm0EEEENSt3__112basic_stringIcNS7_11char_traitsIcEENS7_9allocatorIcEEEENS7_16integer_sequenceImJXspT_EEEE, symObjAddr: 0x1D450, symBinAddr: 0x37AE8, symSize: 0x1DC }
  - { offsetInCU: 0x756E2, offset: 0x15667F, size: 0x8, addend: 0x0, symName: '__ZN3mlc4core16FuncCallUnpackedIZNKS_12_GLOBAL__N_13$_0clENS_3StrEEUlNS_4ListINS_3AnyEEEE_EEvPKNS_7FuncObjEiPKNS_7AnyViewEPS6_.cold.1', symObjAddr: 0x26FD0, symBinAddr: 0x517AC, symSize: 0x40 }
  - { offsetInCU: 0x7572E, offset: 0x1566CB, size: 0x8, addend: 0x0, symName: '__ZN3mlc22DefaultObjectAllocatorINS_4core8FuncImplIZNKS_12_GLOBAL__N_13$_0clENS_3StrEEUlNS_4ListINS_3AnyEEEE_EEE7DeleterEPv', symObjAddr: 0x1D444, symBinAddr: 0x37ADC, symSize: 0xC }
  - { offsetInCU: 0x7575D, offset: 0x1566FA, size: 0x8, addend: 0x0, symName: __ZN3mlc4core8Func2StrINS_4ListINS_3AnyEEEJS4_EE5ApplyILm0EEEvRNSt3__113basic_ostreamIcNS7_11char_traitsIcEEEE, symObjAddr: 0x1D62C, symBinAddr: 0x37CC4, symSize: 0x94 }
  - { offsetInCU: 0x75C85, offset: 0x156C22, size: 0x8, addend: 0x0, symName: __ZN3mlc4core15NestedTypeError8NewFrameENSt3__112basic_stringIcNS2_11char_traitsIcEENS2_9allocatorIcEEEE, symObjAddr: 0x1E154, symBinAddr: 0x387EC, symSize: 0x13C }
  - { offsetInCU: 0x764D7, offset: 0x157474, size: 0x8, addend: 0x0, symName: __ZN3mlc4core15NestedTypeErrorC1ERKS1_, symObjAddr: 0x1E290, symBinAddr: 0x38928, symSize: 0x6C }
  - { offsetInCU: 0x7659E, offset: 0x15753B, size: 0x8, addend: 0x0, symName: __ZN3mlc4core15NestedTypeErrorD1Ev, symObjAddr: 0x1E2FC, symBinAddr: 0x38994, symSize: 0x90 }
  - { offsetInCU: 0x76A00, offset: 0x15799D, size: 0x8, addend: 0x0, symName: __ZNK3mlc4core15NestedTypeError6FormatERNSt3__113basic_ostreamIcNS2_11char_traitsIcEEEENS2_12basic_stringIcS5_NS2_9allocatorIcEEEE, symObjAddr: 0x1DE4C, symBinAddr: 0x384E4, symSize: 0x308 }
  - { offsetInCU: 0x7726F, offset: 0x15820C, size: 0x8, addend: 0x0, symName: __ZN3mlc4base8Type2StrIPNS_7ListObjINS_3AnyEEEE3RunEv, symObjAddr: 0x1DDCC, symBinAddr: 0x38464, symSize: 0x80 }
  - { offsetInCU: 0x7756A, offset: 0x158507, size: 0x8, addend: 0x0, symName: __ZN3mlc4base8Type2StrINS_7ListObjINS_3AnyEEEE3RunEv, symObjAddr: 0x1E8BC, symBinAddr: 0x38F54, symSize: 0x104 }
  - { offsetInCU: 0x78112, offset: 0x1590AF, size: 0x8, addend: 0x0, symName: __ZNSt3__16vectorIN3mlc4core15NestedTypeError5FrameENS_9allocatorIS4_EEE21__push_back_slow_pathIS4_EEvOT_, symObjAddr: 0x1E460, symBinAddr: 0x38AF8, symSize: 0x194 }
  - { offsetInCU: 0x78974, offset: 0x159911, size: 0x8, addend: 0x0, symName: __ZNKSt3__16vectorIN3mlc4core15NestedTypeError5FrameENS_9allocatorIS4_EEE20__throw_length_errorB8ue170006Ev, symObjAddr: 0x1E5F4, symBinAddr: 0x38C8C, symSize: 0x14 }
  - { offsetInCU: 0x78988, offset: 0x159925, size: 0x8, addend: 0x0, symName: __ZN3mlc4core15NestedTypeError5FrameD1Ev, symObjAddr: 0x1E420, symBinAddr: 0x38AB8, symSize: 0x40 }
  - { offsetInCU: 0x78C88, offset: 0x159C25, size: 0x8, addend: 0x0, symName: __ZNSt3__16vectorIN3mlc4core15NestedTypeError5FrameENS_9allocatorIS4_EEE16__init_with_sizeB8ue170006IPS4_S9_EEvT_T0_m, symObjAddr: 0x1E608, symBinAddr: 0x38CA0, symSize: 0xEC }
  - { offsetInCU: 0x7921D, offset: 0x15A1BA, size: 0x8, addend: 0x0, symName: __ZN3mlc4core15NestedTypeErrorD0Ev, symObjAddr: 0x1E38C, symBinAddr: 0x38A24, symSize: 0x94 }
  - { offsetInCU: 0x798BC, offset: 0x15A859, size: 0x8, addend: 0x0, symName: __ZNKSt3__16vectorIN3mlc4core15NestedTypeError5FrameENS_9allocatorIS4_EEE20__throw_length_errorB8ue170006Ev, symObjAddr: 0x1E5F4, symBinAddr: 0x38C8C, symSize: 0x14 }
  - { offsetInCU: 0x798E5, offset: 0x15A882, size: 0x8, addend: 0x0, symName: __ZNSt3__16vectorIN3mlc4core15NestedTypeError5FrameENS_9allocatorIS4_EEE16__init_with_sizeB8ue170006IPS4_S9_EEvT_T0_m, symObjAddr: 0x1E608, symBinAddr: 0x38CA0, symSize: 0xEC }
  - { offsetInCU: 0x79AF7, offset: 0x15AA94, size: 0x8, addend: 0x0, symName: __ZN3mlc4core15NestedTypeError5FrameC2ERKS2_, symObjAddr: 0x1E790, symBinAddr: 0x38E28, symSize: 0x118 }
  - { offsetInCU: 0x7A323, offset: 0x15B2C0, size: 0x8, addend: 0x0, symName: __ZNSt3__16vectorIN3mlc4core15NestedTypeError5FrameENS_9allocatorIS4_EEE16__init_with_sizeB8ue170006IPS4_S9_EEvT_T0_m.cold.1, symObjAddr: 0x27010, symBinAddr: 0x517EC, symSize: 0x58 }
  - { offsetInCU: 0x7A6A6, offset: 0x15B643, size: 0x8, addend: 0x0, symName: __ZNSt3__128__exception_guard_exceptionsINS_6vectorIN3mlc4core15NestedTypeError5FrameENS_9allocatorIS5_EEE16__destroy_vectorEED1B8ue170006Ev, symObjAddr: 0x1E6F4, symBinAddr: 0x38D8C, symSize: 0x9C }
  - { offsetInCU: 0x7AD52, offset: 0x15BCEF, size: 0x8, addend: 0x0, symName: __ZNKSt3__16vectorIN3mlc7AnyViewENS_9allocatorIS2_EEE20__throw_length_errorB8ue170006Ev, symObjAddr: 0x1E8A8, symBinAddr: 0x38F40, symSize: 0x14 }
  - { offsetInCU: 0x7AD7B, offset: 0x15BD18, size: 0x8, addend: 0x0, symName: __ZN3mlc4base8Type2StrINS_7ListObjINS_3AnyEEEE3RunEv, symObjAddr: 0x1E8BC, symBinAddr: 0x38F54, symSize: 0x104 }
  - { offsetInCU: 0x7AD86, offset: 0x15BD23, size: 0x8, addend: 0x0, symName: __ZN3mlc4core15NestedTypeError5FrameC2ERKS2_.cold.1, symObjAddr: 0x27068, symBinAddr: 0x51844, symSize: 0x14 }
  - { offsetInCU: 0x7ADA1, offset: 0x15BD3E, size: 0x8, addend: 0x0, symName: __ZN3mlc4core15NestedTypeError5FrameC2ERKS2_.cold.1, symObjAddr: 0x27068, symBinAddr: 0x51844, symSize: 0x14 }
  - { offsetInCU: 0x7ADB5, offset: 0x15BD52, size: 0x8, addend: 0x0, symName: __ZN3mlc4core15NestedTypeError5FrameC2ERKS2_.cold.1, symObjAddr: 0x27068, symBinAddr: 0x51844, symSize: 0x14 }
  - { offsetInCU: 0x7ADCA, offset: 0x15BD67, size: 0x8, addend: 0x0, symName: __ZN3mlc4core15NestedTypeError5FrameC2ERKS2_.cold.1, symObjAddr: 0x27068, symBinAddr: 0x51844, symSize: 0x14 }
  - { offsetInCU: 0x7B20C, offset: 0x15C1A9, size: 0x8, addend: 0x0, symName: __ZZN3mlc4base7PtrBase5_InitINS_7ListObjINS_4ListIiEEEEEEvRK6MLCAnyENKUlvE_clEv, symObjAddr: 0x1F498, symBinAddr: 0x39B30, symSize: 0xC18 }
  - { offsetInCU: 0x7DD0E, offset: 0x15ECAB, size: 0x8, addend: 0x0, symName: __ZN3mlc4base8Type2StrINS_4ListINS2_IiEEEEE3RunEv, symObjAddr: 0x1F29C, symBinAddr: 0x39934, symSize: 0xF8 }
  - { offsetInCU: 0x7E2A3, offset: 0x15F240, size: 0x8, addend: 0x0, symName: __ZN3mlc4core8Func2StrINS_4ListINS2_IiEEEEJS4_EE3RunIJLm0EEEENSt3__112basic_stringIcNS7_11char_traitsIcEENS7_9allocatorIcEEEENS7_16integer_sequenceImJXspT_EEEE, symObjAddr: 0x1F02C, symBinAddr: 0x396C4, symSize: 0x1DC }
  - { offsetInCU: 0x7E8B1, offset: 0x15F84E, size: 0x8, addend: 0x0, symName: '__ZN3mlc4core16FuncCallUnpackedIZNKS_12_GLOBAL__N_13$_0clENS_3StrEEUlNS_4ListINS5_IiEEEEE_EEvPKNS_7FuncObjEiPKNS_7AnyViewEPNS_3AnyE.cold.1', symObjAddr: 0x2707C, symBinAddr: 0x51858, symSize: 0x40 }
  - { offsetInCU: 0x7E8FD, offset: 0x15F89A, size: 0x8, addend: 0x0, symName: '__ZN3mlc22DefaultObjectAllocatorINS_4core8FuncImplIZNKS_12_GLOBAL__N_13$_0clENS_3StrEEUlNS_4ListINS6_IiEEEEE_EEE7DeleterEPv', symObjAddr: 0x1F020, symBinAddr: 0x396B8, symSize: 0xC }
  - { offsetInCU: 0x7E92C, offset: 0x15F8C9, size: 0x8, addend: 0x0, symName: __ZN3mlc4core8Func2StrINS_4ListINS2_IiEEEEJS4_EE5ApplyILm0EEEvRNSt3__113basic_ostreamIcNS7_11char_traitsIcEEEE, symObjAddr: 0x1F208, symBinAddr: 0x398A0, symSize: 0x94 }
  - { offsetInCU: 0x7EC84, offset: 0x15FC21, size: 0x8, addend: 0x0, symName: __ZN3mlc4base8Type2StrINS_4ListIiEEE3RunEv, symObjAddr: 0x1F394, symBinAddr: 0x39A2C, symSize: 0x104 }
  - { offsetInCU: 0x7F556, offset: 0x1604F3, size: 0x8, addend: 0x0, symName: __ZN3mlc4core15NestedTypeError8NewIndexENS_7AnyViewE, symObjAddr: 0x20130, symBinAddr: 0x3A7C8, symSize: 0x114 }
  - { offsetInCU: 0x7FA0E, offset: 0x1609AB, size: 0x8, addend: 0x0, symName: __ZN3mlc4base8Type2StrINS_7ListObjINS_4ListIiEEEEE3RunEv, symObjAddr: 0x20244, symBinAddr: 0x3A8DC, symSize: 0xF8 }
  - { offsetInCU: 0x7FA19, offset: 0x1609B6, size: 0x8, addend: 0x0, symName: __ZN3mlc4base8Type2StrIPNS_7ListObjINS_4ListIiEEEEE3RunEv, symObjAddr: 0x200B0, symBinAddr: 0x3A748, symSize: 0x80 }
  - { offsetInCU: 0x7FD14, offset: 0x160CB1, size: 0x8, addend: 0x0, symName: __ZN3mlc4base8Type2StrINS_7ListObjINS_4ListIiEEEEE3RunEv, symObjAddr: 0x20244, symBinAddr: 0x3A8DC, symSize: 0xF8 }
  - { offsetInCU: 0x80892, offset: 0x16182F, size: 0x8, addend: 0x0, symName: __ZZN3mlc4base7PtrBase5_InitINS_8UDictObjEEEvRK6MLCAnyENKUlvE_clEv, symObjAddr: 0x20E30, symBinAddr: 0x3B4C8, symSize: 0x270 }
  - { offsetInCU: 0x80F00, offset: 0x161E9D, size: 0x8, addend: 0x0, symName: __ZN3mlc4base8Type2StrINS_5UDictEE3RunEv, symObjAddr: 0x20C18, symBinAddr: 0x3B2B0, symSize: 0x218 }
  - { offsetInCU: 0x81FE1, offset: 0x162F7E, size: 0x8, addend: 0x0, symName: __ZN3mlc4core8Func2StrINS_5UDictEJS2_EE3RunIJLm0EEEENSt3__112basic_stringIcNS5_11char_traitsIcEENS5_9allocatorIcEEEENS5_16integer_sequenceImJXspT_EEEE, symObjAddr: 0x209A8, symBinAddr: 0x3B040, symSize: 0x1DC }
  - { offsetInCU: 0x825EF, offset: 0x16358C, size: 0x8, addend: 0x0, symName: '__ZN3mlc4core16FuncCallUnpackedIZNKS_12_GLOBAL__N_13$_0clENS_3StrEEUlNS_5UDictEE_EEvPKNS_7FuncObjEiPKNS_7AnyViewEPNS_3AnyE.cold.1', symObjAddr: 0x270BC, symBinAddr: 0x51898, symSize: 0x40 }
  - { offsetInCU: 0x8263B, offset: 0x1635D8, size: 0x8, addend: 0x0, symName: '__ZN3mlc22DefaultObjectAllocatorINS_4core8FuncImplIZNKS_12_GLOBAL__N_13$_0clENS_3StrEEUlNS_5UDictEE_EEE7DeleterEPv', symObjAddr: 0x2099C, symBinAddr: 0x3B034, symSize: 0xC }
  - { offsetInCU: 0x8266A, offset: 0x163607, size: 0x8, addend: 0x0, symName: __ZN3mlc4core8Func2StrINS_5UDictEJS2_EE5ApplyILm0EEEvRNSt3__113basic_ostreamIcNS5_11char_traitsIcEEEE, symObjAddr: 0x20B84, symBinAddr: 0x3B21C, symSize: 0x94 }
  - { offsetInCU: 0x82D6B, offset: 0x163D08, size: 0x8, addend: 0x0, symName: __ZZN3mlc4base7PtrBase5_InitINS_7DictObjINS_3StrENS_3AnyEEEEEvRK6MLCAnyENKUlvE_clEv, symObjAddr: 0x21B94, symBinAddr: 0x3C22C, symSize: 0x6AC }
  - { offsetInCU: 0x8444D, offset: 0x1653EA, size: 0x8, addend: 0x0, symName: __ZN3mlc4base8Type2StrINS_4DictINS_3StrENS_3AnyEEEE3RunEv, symObjAddr: 0x2197C, symBinAddr: 0x3C014, symSize: 0x218 }
  - { offsetInCU: 0x8552E, offset: 0x1664CB, size: 0x8, addend: 0x0, symName: __ZN3mlc4core8Func2StrINS_4DictINS_3StrENS_3AnyEEEJS5_EE3RunIJLm0EEEENSt3__112basic_stringIcNS8_11char_traitsIcEENS8_9allocatorIcEEEENS8_16integer_sequenceImJXspT_EEEE, symObjAddr: 0x2170C, symBinAddr: 0x3BDA4, symSize: 0x1DC }
  - { offsetInCU: 0x85B3C, offset: 0x166AD9, size: 0x8, addend: 0x0, symName: '__ZN3mlc4core16FuncCallUnpackedIZNKS_12_GLOBAL__N_13$_0clENS_3StrEEUlNS_4DictIS4_NS_3AnyEEEE_EEvPKNS_7FuncObjEiPKNS_7AnyViewEPS6_.cold.1', symObjAddr: 0x270FC, symBinAddr: 0x518D8, symSize: 0x40 }
  - { offsetInCU: 0x85B88, offset: 0x166B25, size: 0x8, addend: 0x0, symName: '__ZN3mlc22DefaultObjectAllocatorINS_4core8FuncImplIZNKS_12_GLOBAL__N_13$_0clENS_3StrEEUlNS_4DictIS5_NS_3AnyEEEE_EEE7DeleterEPv', symObjAddr: 0x21700, symBinAddr: 0x3BD98, symSize: 0xC }
  - { offsetInCU: 0x85BB7, offset: 0x166B54, size: 0x8, addend: 0x0, symName: __ZN3mlc4core8Func2StrINS_4DictINS_3StrENS_3AnyEEEJS5_EE5ApplyILm0EEEvRNSt3__113basic_ostreamIcNS8_11char_traitsIcEEEE, symObjAddr: 0x218E8, symBinAddr: 0x3BF80, symSize: 0x94 }
  - { offsetInCU: 0x86110, offset: 0x1670AD, size: 0x8, addend: 0x0, symName: __ZZN3mlc4core15NestedTypeCheckINS_4DictINS_3StrENS_3AnyEEEE3RunERK6MLCAnyENKUlPhPS7_SB_E_clESA_SB_SB_, symObjAddr: 0x222C0, symBinAddr: 0x3C958, symSize: 0x2E8 }
  - { offsetInCU: 0x87094, offset: 0x168031, size: 0x8, addend: 0x0, symName: __ZN3mlc4base8Type2StrIPNS_7DictObjINS_3StrENS_3AnyEEEE3RunEv, symObjAddr: 0x22240, symBinAddr: 0x3C8D8, symSize: 0x80 }
  - { offsetInCU: 0x8738F, offset: 0x16832C, size: 0x8, addend: 0x0, symName: __ZN3mlc4base8Type2StrINS_7DictObjINS_3StrENS_3AnyEEEE3RunEv, symObjAddr: 0x225A8, symBinAddr: 0x3CC40, symSize: 0x218 }
  - { offsetInCU: 0x88817, offset: 0x1697B4, size: 0x8, addend: 0x0, symName: __ZZN3mlc4base7PtrBase5_InitINS_7DictObjINS_3AnyENS_3StrEEEEEvRK6MLCAnyENKUlvE_clEv, symObjAddr: 0x232B4, symBinAddr: 0x3D94C, symSize: 0x6AC }
  - { offsetInCU: 0x89EF9, offset: 0x16AE96, size: 0x8, addend: 0x0, symName: __ZN3mlc4base8Type2StrINS_4DictINS_3AnyENS_3StrEEEE3RunEv, symObjAddr: 0x2309C, symBinAddr: 0x3D734, symSize: 0x218 }
  - { offsetInCU: 0x8AFDA, offset: 0x16BF77, size: 0x8, addend: 0x0, symName: __ZN3mlc4core8Func2StrINS_4DictINS_3AnyENS_3StrEEEJS5_EE3RunIJLm0EEEENSt3__112basic_stringIcNS8_11char_traitsIcEENS8_9allocatorIcEEEENS8_16integer_sequenceImJXspT_EEEE, symObjAddr: 0x22E2C, symBinAddr: 0x3D4C4, symSize: 0x1DC }
  - { offsetInCU: 0x8B5E8, offset: 0x16C585, size: 0x8, addend: 0x0, symName: '__ZN3mlc4core16FuncCallUnpackedIZNKS_12_GLOBAL__N_13$_0clENS_3StrEEUlNS_4DictINS_3AnyES4_EEE_EEvPKNS_7FuncObjEiPKNS_7AnyViewEPS6_.cold.1', symObjAddr: 0x2713C, symBinAddr: 0x51918, symSize: 0x40 }
  - { offsetInCU: 0x8B634, offset: 0x16C5D1, size: 0x8, addend: 0x0, symName: '__ZN3mlc22DefaultObjectAllocatorINS_4core8FuncImplIZNKS_12_GLOBAL__N_13$_0clENS_3StrEEUlNS_4DictINS_3AnyES5_EEE_EEE7DeleterEPv', symObjAddr: 0x22E20, symBinAddr: 0x3D4B8, symSize: 0xC }
  - { offsetInCU: 0x8B663, offset: 0x16C600, size: 0x8, addend: 0x0, symName: __ZN3mlc4core8Func2StrINS_4DictINS_3AnyENS_3StrEEEJS5_EE5ApplyILm0EEEvRNSt3__113basic_ostreamIcNS8_11char_traitsIcEEEE, symObjAddr: 0x23008, symBinAddr: 0x3D6A0, symSize: 0x94 }
  - { offsetInCU: 0x8BB10, offset: 0x16CAAD, size: 0x8, addend: 0x0, symName: __ZZN3mlc4core15NestedTypeCheckINS_4DictINS_3AnyENS_3StrEEEE3RunERK6MLCAnyENKUlPhPS7_SB_E_clESA_SB_SB_, symObjAddr: 0x239E0, symBinAddr: 0x3E078, symSize: 0x2B8 }
  - { offsetInCU: 0x8C796, offset: 0x16D733, size: 0x8, addend: 0x0, symName: __ZN3mlc4base8Type2StrIPNS_7DictObjINS_3AnyENS_3StrEEEE3RunEv, symObjAddr: 0x23960, symBinAddr: 0x3DFF8, symSize: 0x80 }
  - { offsetInCU: 0x8CA91, offset: 0x16DA2E, size: 0x8, addend: 0x0, symName: __ZN3mlc4base8Type2StrINS_7DictObjINS_3AnyENS_3StrEEEE3RunEv, symObjAddr: 0x23C98, symBinAddr: 0x3E330, symSize: 0x218 }
  - { offsetInCU: 0x8DEF9, offset: 0x16EE96, size: 0x8, addend: 0x0, symName: __ZZN3mlc4base7PtrBase5_InitINS_7DictObjINS_3AnyES4_EEEEvRK6MLCAnyENKUlvE_clEv, symObjAddr: 0x249A4, symBinAddr: 0x3F03C, symSize: 0x608 }
  - { offsetInCU: 0x8F52E, offset: 0x1704CB, size: 0x8, addend: 0x0, symName: __ZN3mlc4base8Type2StrINS_4DictINS_3AnyES3_EEE3RunEv, symObjAddr: 0x2478C, symBinAddr: 0x3EE24, symSize: 0x218 }
  - { offsetInCU: 0x9060F, offset: 0x1715AC, size: 0x8, addend: 0x0, symName: __ZN3mlc4core8Func2StrINS_4DictINS_3AnyES3_EEJS4_EE3RunIJLm0EEEENSt3__112basic_stringIcNS7_11char_traitsIcEENS7_9allocatorIcEEEENS7_16integer_sequenceImJXspT_EEEE, symObjAddr: 0x2451C, symBinAddr: 0x3EBB4, symSize: 0x1DC }
  - { offsetInCU: 0x90C1D, offset: 0x171BBA, size: 0x8, addend: 0x0, symName: '__ZN3mlc4core16FuncCallUnpackedIZNKS_12_GLOBAL__N_13$_0clENS_3StrEEUlNS_4DictINS_3AnyES6_EEE_EEvPKNS_7FuncObjEiPKNS_7AnyViewEPS6_.cold.1', symObjAddr: 0x2717C, symBinAddr: 0x51958, symSize: 0x40 }
  - { offsetInCU: 0x90C69, offset: 0x171C06, size: 0x8, addend: 0x0, symName: '__ZN3mlc22DefaultObjectAllocatorINS_4core8FuncImplIZNKS_12_GLOBAL__N_13$_0clENS_3StrEEUlNS_4DictINS_3AnyES7_EEE_EEE7DeleterEPv', symObjAddr: 0x24510, symBinAddr: 0x3EBA8, symSize: 0xC }
  - { offsetInCU: 0x90C98, offset: 0x171C35, size: 0x8, addend: 0x0, symName: __ZN3mlc4core8Func2StrINS_4DictINS_3AnyES3_EEJS4_EE5ApplyILm0EEEvRNSt3__113basic_ostreamIcNS7_11char_traitsIcEEEE, symObjAddr: 0x246F8, symBinAddr: 0x3ED90, symSize: 0x94 }
  - { offsetInCU: 0x91095, offset: 0x172032, size: 0x8, addend: 0x0, symName: __ZN3mlc4base8Type2StrIPNS_7DictObjINS_3AnyES3_EEE3RunEv, symObjAddr: 0x24FAC, symBinAddr: 0x3F644, symSize: 0x80 }
  - { offsetInCU: 0x91390, offset: 0x17232D, size: 0x8, addend: 0x0, symName: __ZN3mlc4base8Type2StrINS_7DictObjINS_3AnyES3_EEE3RunEv, symObjAddr: 0x2502C, symBinAddr: 0x3F6C4, symSize: 0x218 }
  - { offsetInCU: 0x927F8, offset: 0x173795, size: 0x8, addend: 0x0, symName: __ZZN3mlc4base7PtrBase5_InitINS_7DictObjINS_3StrENS_4ListIiEEEEEEvRK6MLCAnyENKUlvE_clEv, symObjAddr: 0x25D50, symBinAddr: 0x403E8, symSize: 0x6AC }
  - { offsetInCU: 0x93EDA, offset: 0x174E77, size: 0x8, addend: 0x0, symName: __ZN3mlc4base8Type2StrINS_4DictINS_3StrENS_4ListIiEEEEE3RunEv, symObjAddr: 0x25B20, symBinAddr: 0x401B8, symSize: 0x230 }
  - { offsetInCU: 0x94E45, offset: 0x175DE2, size: 0x8, addend: 0x0, symName: __ZN3mlc4core8Func2StrINS_4DictINS_3StrENS_4ListIiEEEEJS6_EE3RunIJLm0EEEENSt3__112basic_stringIcNS9_11char_traitsIcEENS9_9allocatorIcEEEENS9_16integer_sequenceImJXspT_EEEE, symObjAddr: 0x258B0, symBinAddr: 0x3FF48, symSize: 0x1DC }
  - { offsetInCU: 0x95453, offset: 0x1763F0, size: 0x8, addend: 0x0, symName: '__ZN3mlc4core16FuncCallUnpackedIZNKS_12_GLOBAL__N_13$_0clENS_3StrEEUlNS_4DictIS4_NS_4ListIiEEEEE_EEvPKNS_7FuncObjEiPKNS_7AnyViewEPNS_3AnyE.cold.1', symObjAddr: 0x271BC, symBinAddr: 0x51998, symSize: 0x40 }
  - { offsetInCU: 0x9549F, offset: 0x17643C, size: 0x8, addend: 0x0, symName: '__ZN3mlc22DefaultObjectAllocatorINS_4core8FuncImplIZNKS_12_GLOBAL__N_13$_0clENS_3StrEEUlNS_4DictIS5_NS_4ListIiEEEEE_EEE7DeleterEPv', symObjAddr: 0x258A4, symBinAddr: 0x3FF3C, symSize: 0xC }
  - { offsetInCU: 0x954CE, offset: 0x17646B, size: 0x8, addend: 0x0, symName: __ZN3mlc4core8Func2StrINS_4DictINS_3StrENS_4ListIiEEEEJS6_EE5ApplyILm0EEEvRNSt3__113basic_ostreamIcNS9_11char_traitsIcEEEE, symObjAddr: 0x25A8C, symBinAddr: 0x40124, symSize: 0x94 }
  - { offsetInCU: 0x9597B, offset: 0x176918, size: 0x8, addend: 0x0, symName: __ZZN3mlc4core15NestedTypeCheckINS_4DictINS_3StrENS_4ListIiEEEEE3RunERK6MLCAnyENKUlPhPS8_SC_E_clESB_SC_SC_, symObjAddr: 0x2647C, symBinAddr: 0x40B14, symSize: 0x8A4 }
  - { offsetInCU: 0x97D68, offset: 0x178D05, size: 0x8, addend: 0x0, symName: __ZN3mlc4base8Type2StrIPNS_7DictObjINS_3StrENS_4ListIiEEEEE3RunEv, symObjAddr: 0x263FC, symBinAddr: 0x40A94, symSize: 0x80 }
  - { offsetInCU: 0x98063, offset: 0x179000, size: 0x8, addend: 0x0, symName: __ZN3mlc4base8Type2StrINS_7DictObjINS_3StrENS_4ListIiEEEEE3RunEv, symObjAddr: 0x26D20, symBinAddr: 0x413B8, symSize: 0x230 }
  - { offsetInCU: 0x9D259, offset: 0x17E1F6, size: 0x8, addend: 0x0, symName: _OUTLINED_FUNCTION_0, symObjAddr: 0x271FC, symBinAddr: 0x415E8, symSize: 0x8 }
  - { offsetInCU: 0x9D271, offset: 0x17E20E, size: 0x8, addend: 0x0, symName: _OUTLINED_FUNCTION_1, symObjAddr: 0x27204, symBinAddr: 0x415F0, symSize: 0x10 }
  - { offsetInCU: 0x9D289, offset: 0x17E226, size: 0x8, addend: 0x0, symName: _OUTLINED_FUNCTION_2, symObjAddr: 0x27214, symBinAddr: 0x41600, symSize: 0x8 }
  - { offsetInCU: 0x9D2A1, offset: 0x17E23E, size: 0x8, addend: 0x0, symName: _OUTLINED_FUNCTION_3, symObjAddr: 0x2721C, symBinAddr: 0x41608, symSize: 0x8 }
  - { offsetInCU: 0x9D2B9, offset: 0x17E256, size: 0x8, addend: 0x0, symName: _OUTLINED_FUNCTION_4, symObjAddr: 0x27224, symBinAddr: 0x41610, symSize: 0xC }
  - { offsetInCU: 0x4B, offset: 0x17E31D, size: 0x8, addend: 0x0, symName: __ZN3mlc3ffi12_GLOBAL__N_19_bt_stateE, symObjAddr: 0x2D1C8, symBinAddr: 0x68680, symSize: 0x0 }
  - { offsetInCU: 0x1DB, offset: 0x17E4AD, size: 0x8, addend: 0x0, symName: __ZN3mlc3ffi17GetTracebackLimitEv, symObjAddr: 0x0, symBinAddr: 0x44ABC, symSize: 0xF0 }
  - { offsetInCU: 0x97D1, offset: 0x187AA3, size: 0x8, addend: 0x0, symName: __ZN3mlc3ffi16TracebackStorageD1Ev, symObjAddr: 0xF0, symBinAddr: 0x44BAC, symSize: 0x30 }
  - { offsetInCU: 0x9BE4, offset: 0x187EB6, size: 0x8, addend: 0x0, symName: _MLCTraceback, symObjAddr: 0x120, symBinAddr: 0x44BDC, symSize: 0x1FC }
  - { offsetInCU: 0xA303, offset: 0x1885D5, size: 0x8, addend: 0x0, symName: '__ZN3mlc3ffi12_GLOBAL__N_13$_08__invokeEPvPKci', symObjAddr: 0x3B0, symBinAddr: 0x44DD8, symSize: 0xC4 }
  - { offsetInCU: 0xA730, offset: 0x188A02, size: 0x8, addend: 0x0, symName: __ZNKSt3__16vectorIcNS_9allocatorIcEEE20__throw_length_errorB8ue170006Ev, symObjAddr: 0x76C, symBinAddr: 0x44E9C, symSize: 0x14 }
  - { offsetInCU: 0xA759, offset: 0x188A2B, size: 0x8, addend: 0x0, symName: '__ZZN3mlc3ffi12_GLOBAL__N_113TracebackImplEvEN3$_18__invokeEPvmPKciS5_', symObjAddr: 0x780, symBinAddr: 0x44EB0, symSize: 0x31C }
  - { offsetInCU: 0xA7E5, offset: 0x188AB7, size: 0x8, addend: 0x0, symName: '__ZZN3mlc3ffi12_GLOBAL__N_113TracebackImplEvEN3$_18__invokeEPvmPKciS5_', symObjAddr: 0x780, symBinAddr: 0x44EB0, symSize: 0x31C }
  - { offsetInCU: 0xAEA4, offset: 0x189176, size: 0x8, addend: 0x0, symName: __ZN3mlc3ffi16TracebackStorage6AppendEPKc, symObjAddr: 0xA9C, symBinAddr: 0x451CC, symSize: 0x1C0 }
  - { offsetInCU: 0xB3A5, offset: 0x189677, size: 0x8, addend: 0x0, symName: '__ZZZN3mlc3ffi12_GLOBAL__N_113TracebackImplEvENK3$_1clEPvmPKciS5_ENUlS3_mS5_mmE_8__invokeES3_mS5_mm', symObjAddr: 0xC5C, symBinAddr: 0x4538C, symSize: 0x8 }
  - { offsetInCU: 0xB701, offset: 0x1899D3, size: 0x8, addend: 0x0, symName: __ZNSt3__16vectorIcNS_9allocatorIcEEE18__insert_with_sizeB8ue170006IPKcS6_EENS_11__wrap_iterIPcEENS7_IS6_EET_T0_l, symObjAddr: 0xC68, symBinAddr: 0x45398, symSize: 0x2A8 }
  - { offsetInCU: 0xC260, offset: 0x18A532, size: 0x8, addend: 0x0, symName: '__ZZN3mlc3ffi12_GLOBAL__N_113TracebackImplEvEN3$_28__invokeEPvPKci', symObjAddr: 0xF10, symBinAddr: 0x45640, symSize: 0x4 }
  - { offsetInCU: 0xC34A, offset: 0x18A61C, size: 0x8, addend: 0x0, symName: '__ZZZN3mlc3ffi12_GLOBAL__N_113TracebackImplEvENK3$_1clEPvmPKciS5_ENUlS3_mS5_mmE_8__invokeES3_mS5_mm', symObjAddr: 0xC5C, symBinAddr: 0x4538C, symSize: 0x8 }
  - { offsetInCU: 0xC38E, offset: 0x18A660, size: 0x8, addend: 0x0, symName: '__ZZZN3mlc3ffi12_GLOBAL__N_113TracebackImplEvENK3$_1clEPvmPKciS5_ENUlS3_mS5_mmE_8__invokeES3_mS5_mm', symObjAddr: 0xC5C, symBinAddr: 0x4538C, symSize: 0x8 }
  - { offsetInCU: 0xC3AF, offset: 0x18A681, size: 0x8, addend: 0x0, symName: '__ZZZN3mlc3ffi12_GLOBAL__N_113TracebackImplEvENK3$_1clEPvmPKciS5_ENUlS3_S5_iE_8__invokeES3_S5_i', symObjAddr: 0xC64, symBinAddr: 0x45394, symSize: 0x4 }
  - { offsetInCU: 0xC618, offset: 0x18A8EA, size: 0x8, addend: 0x0, symName: '__ZZN3mlc3ffi12_GLOBAL__N_113TracebackImplEvEN3$_28__invokeEPvPKci', symObjAddr: 0xF10, symBinAddr: 0x45640, symSize: 0x4 }
...
